
libamidi.so:     file format elf64-littleaarch64


Disassembly of section .note.android.ident:

0000000000000238 <.note.android.ident>:
 238:	00000008 	.inst	0x00000008 ; undefined
 23c:	00000004 	.inst	0x00000004 ; undefined
 240:	00000001 	.inst	0x00000001 ; undefined
 244:	72646e41 	.inst	0x72646e41 ; undefined
 248:	0064696f 	.inst	0x0064696f ; undefined
 24c:	0000001d 	.inst	0x0000001d ; undefined

Disassembly of section .note.gnu.build-id:

0000000000000250 <.note.gnu.build-id>:
 250:	00000004 	.inst	0x00000004 ; undefined
 254:	00000010 	.inst	0x00000010 ; undefined
 258:	00000003 	.inst	0x00000003 ; undefined
 25c:	00554e47 	.inst	0x00554e47 ; undefined
 260:	94355e4f 	bl	d57b9c <_end@@Base+0xd4fb64>
 264:	bc343ac7 	.inst	0xbc343ac7 ; undefined
 268:	683b8288 	.inst	0x683b8288 ; undefined
 26c:	4c4e4cd7 	.inst	0x4c4e4cd7 ; undefined

Disassembly of section .dynsym:

0000000000000270 <.dynsym>:
	...
 288:	00000084 	.inst	0x00000084 ; undefined
 28c:	00000012 	.inst	0x00000012 ; undefined
	...
 2a0:	00000098 	.inst	0x00000098 ; undefined
 2a4:	00000012 	.inst	0x00000012 ; undefined
	...
 2b8:	000001d7 	.inst	0x000001d7 ; undefined
 2bc:	00000012 	.inst	0x00000012 ; undefined
	...
 2d0:	00000200 	.inst	0x00000200 ; undefined
 2d4:	00000012 	.inst	0x00000012 ; undefined
	...
 2e8:	0000021d 	.inst	0x0000021d ; undefined
 2ec:	00000012 	.inst	0x00000012 ; undefined
	...
 300:	00000239 	.inst	0x00000239 ; undefined
 304:	00000012 	.inst	0x00000012 ; undefined
	...
 318:	00000257 	.inst	0x00000257 ; undefined
 31c:	00000012 	.inst	0x00000012 ; undefined
	...
 330:	0000028d 	.inst	0x0000028d ; undefined
 334:	00000011 	.inst	0x00000011 ; undefined
	...
 348:	000002b1 	.inst	0x000002b1 ; undefined
 34c:	00000011 	.inst	0x00000011 ; undefined
	...
 360:	000002d7 	.inst	0x000002d7 ; undefined
 364:	00000011 	.inst	0x00000011 ; undefined
	...
 378:	000002ff 	.inst	0x000002ff ; undefined
 37c:	00000011 	.inst	0x00000011 ; undefined
	...
 390:	0000032d 	.inst	0x0000032d ; undefined
 394:	00000012 	.inst	0x00000012 ; undefined
	...
 3a8:	00000345 	.inst	0x00000345 ; undefined
 3ac:	00000012 	.inst	0x00000012 ; undefined
	...
 3c0:	0000035d 	.inst	0x0000035d ; undefined
 3c4:	00000012 	.inst	0x00000012 ; undefined
	...
 3d8:	0000037a 	.inst	0x0000037a ; undefined
 3dc:	00000012 	.inst	0x00000012 ; undefined
	...
 3f0:	00000393 	.inst	0x00000393 ; undefined
 3f4:	00000012 	.inst	0x00000012 ; undefined
	...
 408:	000003ac 	.inst	0x000003ac ; undefined
 40c:	00000012 	.inst	0x00000012 ; undefined
	...
 420:	000003cf 	.inst	0x000003cf ; undefined
 424:	00000012 	.inst	0x00000012 ; undefined
	...
 438:	000003f2 	.inst	0x000003f2 ; undefined
 43c:	00000012 	.inst	0x00000012 ; undefined
	...
 450:	00000409 	.inst	0x00000409 ; undefined
 454:	00000012 	.inst	0x00000012 ; undefined
	...
 468:	00000422 	.inst	0x00000422 ; undefined
 46c:	00000012 	.inst	0x00000012 ; undefined
	...
 480:	00000436 	.inst	0x00000436 ; undefined
 484:	00000011 	.inst	0x00000011 ; undefined
	...
 498:	0000045b 	.inst	0x0000045b ; undefined
 49c:	00000011 	.inst	0x00000011 ; undefined
	...
 4b0:	00000485 	.inst	0x00000485 ; undefined
 4b4:	00000012 	.inst	0x00000012 ; undefined
	...
 4c8:	0000048c 	.inst	0x0000048c ; undefined
 4cc:	00000012 	.inst	0x00000012 ; undefined
	...
 4e0:	00000492 	.inst	0x00000492 ; undefined
 4e4:	00000012 	.inst	0x00000012 ; undefined
	...
 4f8:	000004ae 	.inst	0x000004ae ; undefined
 4fc:	00000012 	.inst	0x00000012 ; undefined
	...
 510:	000004c2 	.inst	0x000004c2 ; undefined
 514:	00000012 	.inst	0x00000012 ; undefined
	...
 528:	000004ca 	.inst	0x000004ca ; undefined
 52c:	00000012 	.inst	0x00000012 ; undefined
	...
 540:	000004d7 	.inst	0x000004d7 ; undefined
 544:	00000012 	.inst	0x00000012 ; undefined
	...
 558:	000004e2 	.inst	0x000004e2 ; undefined
 55c:	00000012 	.inst	0x00000012 ; undefined
	...
 570:	000004ed 	.inst	0x000004ed ; undefined
 574:	00000012 	.inst	0x00000012 ; undefined
	...
 588:	000004fe 	.inst	0x000004fe ; undefined
 58c:	00000012 	.inst	0x00000012 ; undefined
	...
 5a0:	00000511 	.inst	0x00000511 ; undefined
 5a4:	00000022 	.inst	0x00000022 ; undefined
	...
 5b8:	00000535 	.inst	0x00000535 ; undefined
 5bc:	00000022 	.inst	0x00000022 ; undefined
	...
 5d0:	00000554 	.inst	0x00000554 ; undefined
 5d4:	00000022 	.inst	0x00000022 ; undefined
	...
 5e8:	00000575 	.inst	0x00000575 ; undefined
 5ec:	00000012 	.inst	0x00000012 ; undefined
	...
 600:	0000057b 	.inst	0x0000057b ; undefined
 604:	00000012 	.inst	0x00000012 ; undefined
	...
 618:	00000582 	.inst	0x00000582 ; undefined
 61c:	00000012 	.inst	0x00000012 ; undefined
	...
 630:	0000058a 	.inst	0x0000058a ; undefined
 634:	00000012 	.inst	0x00000012 ; undefined
	...
 648:	000005a6 	.inst	0x000005a6 ; undefined
 64c:	00000012 	.inst	0x00000012 ; undefined
	...
 660:	000005c2 	.inst	0x000005c2 ; undefined
 664:	00000012 	.inst	0x00000012 ; undefined
	...
 678:	000005de 	.inst	0x000005de ; undefined
 67c:	00000012 	.inst	0x00000012 ; undefined
	...
 690:	000005fa 	.inst	0x000005fa ; undefined
 694:	00000012 	.inst	0x00000012 ; undefined
	...
 6a8:	0000061b 	.inst	0x0000061b ; undefined
 6ac:	00000012 	.inst	0x00000012 ; undefined
	...
 6c0:	00000652 	.inst	0x00000652 ; undefined
 6c4:	00000012 	.inst	0x00000012 ; undefined
	...
 6d8:	00000690 	.inst	0x00000690 ; undefined
 6dc:	00000012 	.inst	0x00000012 ; undefined
	...
 6f0:	000006c8 	.inst	0x000006c8 ; undefined
 6f4:	00000012 	.inst	0x00000012 ; undefined
	...
 708:	00000728 	.inst	0x00000728 ; undefined
 70c:	00000012 	.inst	0x00000012 ; undefined
	...
 720:	0000073f 	.inst	0x0000073f ; undefined
 724:	00000012 	.inst	0x00000012 ; undefined
	...
 738:	00000756 	.inst	0x00000756 ; undefined
 73c:	00000012 	.inst	0x00000012 ; undefined
	...
 750:	0000078e 	.inst	0x0000078e ; undefined
 754:	00000012 	.inst	0x00000012 ; undefined
	...
 768:	000007ba 	.inst	0x000007ba ; undefined
 76c:	00000012 	.inst	0x00000012 ; undefined
	...
 780:	000007dc 	.inst	0x000007dc ; undefined
 784:	00000012 	.inst	0x00000012 ; undefined
	...
 798:	00000803 	.inst	0x00000803 ; undefined
 79c:	00000012 	.inst	0x00000012 ; undefined
	...
 7b0:	0000082c 	.inst	0x0000082c ; undefined
 7b4:	00000012 	.inst	0x00000012 ; undefined
	...
 7c8:	0000085b 	.inst	0x0000085b ; undefined
 7cc:	00000012 	.inst	0x00000012 ; undefined
	...
 7e0:	00000873 	.inst	0x00000873 ; undefined
 7e4:	00000012 	.inst	0x00000012 ; undefined
	...
 7f8:	0000088b 	.inst	0x0000088b ; undefined
 7fc:	00000012 	.inst	0x00000012 ; undefined
	...
 810:	000008a7 	.inst	0x000008a7 ; undefined
 814:	00000012 	.inst	0x00000012 ; undefined
	...
 828:	000008bf 	.inst	0x000008bf ; undefined
 82c:	00000012 	.inst	0x00000012 ; undefined
	...
 840:	000008da 	.inst	0x000008da ; undefined
 844:	00000012 	.inst	0x00000012 ; undefined
	...
 858:	000008fe 	.inst	0x000008fe ; undefined
 85c:	00000012 	.inst	0x00000012 ; undefined
	...
 870:	00000929 	.inst	0x00000929 ; undefined
 874:	00000012 	.inst	0x00000012 ; undefined
	...
 888:	0000095a 	.inst	0x0000095a ; undefined
 88c:	00000012 	.inst	0x00000012 ; undefined
	...
 8a0:	0000098a 	.inst	0x0000098a ; undefined
 8a4:	00000012 	.inst	0x00000012 ; undefined
	...
 8b8:	000009a4 	.inst	0x000009a4 ; undefined
 8bc:	00000012 	.inst	0x00000012 ; undefined
	...
 8d0:	000009be 	.inst	0x000009be ; undefined
 8d4:	00000012 	.inst	0x00000012 ; undefined
	...
 8e8:	000009d8 	.inst	0x000009d8 ; undefined
 8ec:	00000012 	.inst	0x00000012 ; undefined
	...
 900:	00000a0e 	.inst	0x00000a0e ; undefined
 904:	00000012 	.inst	0x00000012 ; undefined
	...
 918:	00000a6d 	.inst	0x00000a6d ; undefined
 91c:	00000012 	.inst	0x00000012 ; undefined
	...
 930:	00000a8e 	.inst	0x00000a8e ; undefined
 934:	00000012 	.inst	0x00000012 ; undefined
	...
 948:	00000ab2 	.inst	0x00000ab2 ; undefined
 94c:	00000012 	.inst	0x00000012 ; undefined
	...
 960:	00000ad6 	.inst	0x00000ad6 ; undefined
 964:	00000012 	.inst	0x00000012 ; undefined
	...
 978:	00000af8 	.inst	0x00000af8 ; undefined
 97c:	00000012 	.inst	0x00000012 ; undefined
	...
 990:	00000b1a 	.inst	0x00000b1a ; undefined
 994:	00000012 	.inst	0x00000012 ; undefined
	...
 9a8:	00000b46 	.inst	0x00000b46 ; undefined
 9ac:	00000012 	.inst	0x00000012 ; undefined
	...
 9c0:	00000b79 	.inst	0x00000b79 ; undefined
 9c4:	00000012 	.inst	0x00000012 ; undefined
	...
 9d8:	00000bb2 	.inst	0x00000bb2 ; undefined
 9dc:	00000012 	.inst	0x00000012 ; undefined
	...
 9f0:	000000ba 	.inst	0x000000ba ; undefined
 9f4:	000e0012 	.inst	0x000e0012 ; undefined
 9f8:	000035a0 	.inst	0x000035a0 ; undefined
 9fc:	00000000 	.inst	0x00000000 ; undefined
 a00:	00000014 	.inst	0x00000014 ; undefined
 a04:	00000000 	.inst	0x00000000 ; undefined
 a08:	00000194 	.inst	0x00000194 ; undefined
 a0c:	000e0012 	.inst	0x000e0012 ; undefined
 a10:	00003a18 	.inst	0x00003a18 ; undefined
 a14:	00000000 	.inst	0x00000000 ; undefined
 a18:	00000004 	.inst	0x00000004 ; undefined
 a1c:	00000000 	.inst	0x00000000 ; undefined
 a20:	000001aa 	.inst	0x000001aa ; undefined
 a24:	000e0012 	.inst	0x000e0012 ; undefined
 a28:	000035d0 	.inst	0x000035d0 ; undefined
 a2c:	00000000 	.inst	0x00000000 ; undefined
 a30:	0000000c 	.inst	0x0000000c ; undefined
 a34:	00000000 	.inst	0x00000000 ; undefined
 a38:	00000bcc 	.inst	0x00000bcc ; undefined
 a3c:	00170010 	.inst	0x00170010 ; undefined
 a40:	00008000 	.inst	0x00008000 ; undefined
	...
 a50:	000000d7 	.inst	0x000000d7 ; undefined
 a54:	000e0012 	.inst	0x000e0012 ; undefined
 a58:	000035b8 	.inst	0x000035b8 ; undefined
 a5c:	00000000 	.inst	0x00000000 ; undefined
 a60:	00000014 	.inst	0x00000014 ; undefined
 a64:	00000000 	.inst	0x00000000 ; undefined
 a68:	00000109 	.inst	0x00000109 ; undefined
 a6c:	000e0012 	.inst	0x000e0012 ; undefined
 a70:	00003428 	.inst	0x00003428 ; undefined
 a74:	00000000 	.inst	0x00000000 ; undefined
 a78:	00000160 	.inst	0x00000160 ; undefined
 a7c:	00000000 	.inst	0x00000000 ; undefined
 a80:	0000015a 	.inst	0x0000015a ; undefined
 a84:	000e0012 	.inst	0x000e0012 ; undefined
 a88:	00003ce0 	.inst	0x00003ce0 ; undefined
 a8c:	00000000 	.inst	0x00000000 ; undefined
 a90:	0000009c 	.inst	0x0000009c ; undefined
 a94:	00000000 	.inst	0x00000000 ; undefined
 a98:	000001bf 	.inst	0x000001bf ; undefined
 a9c:	000e0012 	.inst	0x000e0012 ; undefined
 aa0:	00003858 	.inst	0x00003858 ; undefined
 aa4:	00000000 	.inst	0x00000000 ; undefined
 aa8:	00000068 	.inst	0x00000068 ; undefined
 aac:	00000000 	.inst	0x00000000 ; undefined
 ab0:	000000a5 	.inst	0x000000a5 ; undefined
 ab4:	000e0012 	.inst	0x000e0012 ; undefined
 ab8:	00003020 	.inst	0x00003020 ; undefined
 abc:	00000000 	.inst	0x00000000 ; undefined
 ac0:	00000404 	.inst	0x00000404 ; undefined
 ac4:	00000000 	.inst	0x00000000 ; undefined
 ac8:	000000f5 	.inst	0x000000f5 ; undefined
 acc:	000e0012 	.inst	0x000e0012 ; undefined
 ad0:	00003588 	.inst	0x00003588 ; undefined
 ad4:	00000000 	.inst	0x00000000 ; undefined
 ad8:	00000014 	.inst	0x00000014 ; undefined
 adc:	00000000 	.inst	0x00000000 ; undefined
 ae0:	0000011d 	.inst	0x0000011d ; undefined
 ae4:	000e0012 	.inst	0x000e0012 ; undefined
 ae8:	00003ba0 	.inst	0x00003ba0 ; undefined
 aec:	00000000 	.inst	0x00000000 ; undefined
 af0:	00000004 	.inst	0x00000004 ; undefined
 af4:	00000000 	.inst	0x00000000 ; undefined
 af8:	00000132 	.inst	0x00000132 ; undefined
 afc:	000e0012 	.inst	0x000e0012 ; undefined
 b00:	00003b90 	.inst	0x00003b90 ; undefined
 b04:	00000000 	.inst	0x00000000 ; undefined
 b08:	0000000c 	.inst	0x0000000c ; undefined
 b0c:	00000000 	.inst	0x00000000 ; undefined
 b10:	00000146 	.inst	0x00000146 ; undefined
 b14:	000e0012 	.inst	0x000e0012 ; undefined
 b18:	00003ba8 	.inst	0x00003ba8 ; undefined
 b1c:	00000000 	.inst	0x00000000 ; undefined
 b20:	00000008 	.inst	0x00000008 ; undefined
 b24:	00000000 	.inst	0x00000000 ; undefined
 b28:	00000173 	.inst	0x00000173 ; undefined
 b2c:	000e0012 	.inst	0x000e0012 ; undefined
 b30:	00003bb0 	.inst	0x00003bb0 ; undefined
 b34:	00000000 	.inst	0x00000000 ; undefined
 b38:	00000130 	.inst	0x00000130 ; undefined
 b3c:	00000000 	.inst	0x00000000 ; undefined
 b40:	00000bc5 	.inst	0x00000bc5 ; undefined
 b44:	00160010 	.inst	0x00160010 ; undefined
 b48:	00007970 	.inst	0x00007970 ; undefined
	...
 b58:	00000bd8 	.inst	0x00000bd8 ; undefined
 b5c:	00170010 	.inst	0x00170010 ; undefined
 b60:	00008038 	.inst	0x00008038 ; undefined
	...

Disassembly of section .gnu.version:

0000000000000b70 <.gnu.version>:
 b70:	00020000 	.inst	0x00020000 ; undefined
 b74:	00010002 	.inst	0x00010002 ; undefined
 b78:	00010001 	.inst	0x00010001 ; undefined
 b7c:	00010001 	.inst	0x00010001 ; undefined
 b80:	00010001 	.inst	0x00010001 ; undefined
 b84:	00010001 	.inst	0x00010001 ; undefined
 b88:	00010001 	.inst	0x00010001 ; undefined
 b8c:	00010001 	.inst	0x00010001 ; undefined
 b90:	00010001 	.inst	0x00010001 ; undefined
 b94:	00010001 	.inst	0x00010001 ; undefined
 b98:	00010001 	.inst	0x00010001 ; undefined
 b9c:	00010001 	.inst	0x00010001 ; undefined
 ba0:	00010001 	.inst	0x00010001 ; undefined
 ba4:	00030003 	.inst	0x00030003 ; undefined
 ba8:	00020002 	.inst	0x00020002 ; undefined
 bac:	00020002 	.inst	0x00020002 ; undefined
 bb0:	00040002 	.inst	0x00040002 ; undefined
 bb4:	00050005 	.inst	0x00050005 ; undefined
 bb8:	00020005 	.inst	0x00020005 ; undefined
 bbc:	00020002 	.inst	0x00020002 ; undefined
 bc0:	00010001 	.inst	0x00010001 ; undefined
 bc4:	00010001 	.inst	0x00010001 ; undefined
 bc8:	00010001 	.inst	0x00010001 ; undefined
 bcc:	00010001 	.inst	0x00010001 ; undefined
 bd0:	00010001 	.inst	0x00010001 ; undefined
 bd4:	00010001 	.inst	0x00010001 ; undefined
 bd8:	00010001 	.inst	0x00010001 ; undefined
 bdc:	00010001 	.inst	0x00010001 ; undefined
 be0:	00010001 	.inst	0x00010001 ; undefined
 be4:	00010001 	.inst	0x00010001 ; undefined
 be8:	00010001 	.inst	0x00010001 ; undefined
 bec:	00010001 	.inst	0x00010001 ; undefined
 bf0:	00010001 	.inst	0x00010001 ; undefined
 bf4:	00010001 	.inst	0x00010001 ; undefined
 bf8:	00010001 	.inst	0x00010001 ; undefined
 bfc:	00010001 	.inst	0x00010001 ; undefined
 c00:	00010001 	.inst	0x00010001 ; undefined
 c04:	00010001 	.inst	0x00010001 ; undefined
 c08:	00010001 	.inst	0x00010001 ; undefined
 c0c:	00010001 	.inst	0x00010001 ; undefined
 c10:	00010001 	.inst	0x00010001 ; undefined
 c14:	00010001 	.inst	0x00010001 ; undefined
 c18:	00010001 	.inst	0x00010001 ; undefined
 c1c:	00010001 	.inst	0x00010001 ; undefined
 c20:	00010001 	.inst	0x00010001 ; undefined
 c24:	00010001 	.inst	0x00010001 ; undefined
 c28:	00010001 	.inst	0x00010001 ; undefined
 c2c:	00010001 	.inst	0x00010001 ; undefined

Disassembly of section .gnu.version_r:

0000000000000c30 <.gnu.version_r>:
 c30:	00030001 	.inst	0x00030001 ; undefined
 c34:	0000005f 	.inst	0x0000005f ; undefined
 c38:	00000020 	.inst	0x00000020 ; undefined
 c3c:	00000010 	.inst	0x00000010 ; undefined
 c40:	00010001 	.inst	0x00010001 ; undefined
 c44:	00000001 	.inst	0x00000001 ; undefined
 c48:	00000040 	.inst	0x00000040 ; undefined
 c4c:	00000000 	.inst	0x00000000 ; undefined
 c50:	00050d63 	.inst	0x00050d63 ; undefined
 c54:	00020000 	.inst	0x00020000 ; undefined
 c58:	00000093 	.inst	0x00000093 ; undefined
 c5c:	00000010 	.inst	0x00000010 ; undefined
 c60:	050d693e 	.inst	0x050d693e ; undefined
 c64:	00040000 	.inst	0x00040000 ; undefined
 c68:	0000050a 	.inst	0x0000050a ; undefined
 c6c:	00000010 	.inst	0x00000010 ; undefined
 c70:	050d6941 	.inst	0x050d6941 ; undefined
 c74:	00050000 	.inst	0x00050000 ; undefined
 c78:	0000052e 	.inst	0x0000052e ; undefined
 c7c:	00000000 	.inst	0x00000000 ; undefined
 c80:	050d7137 	.inst	0x050d7137 ; undefined
 c84:	00030000 	.inst	0x00030000 ; undefined
 c88:	000004a7 	.inst	0x000004a7 ; undefined
 c8c:	00000000 	.inst	0x00000000 ; undefined

Disassembly of section .gnu.hash:

0000000000000c90 <.gnu.hash>:
 c90:	00000004 	.inst	0x00000004 ; undefined
 c94:	00000050 	.inst	0x00000050 ; undefined
 c98:	00000004 	.inst	0x00000004 ; undefined
 c9c:	0000001a 	.inst	0x0000001a ; undefined
 ca0:	00044000 	.inst	0x00044000 ; undefined
 ca4:	20110204 	.inst	0x20110204 ; undefined
 ca8:	08030088 	stxrb	w3, w8, [x4]
 cac:	0e080002 	tbl	v2.8b, {v0.16b}, v8.8b
 cb0:	80010021 	.inst	0x80010021 ; undefined
 cb4:	080800c0 	stxrb	w8, w0, [x6]
 cb8:	018280a0 	.inst	0x018280a0 ; undefined
 cbc:	00000000 	.inst	0x00000000 ; undefined
 cc0:	00000050 	.inst	0x00000050 ; undefined
 cc4:	00000054 	.inst	0x00000054 ; undefined
 cc8:	00000058 	.inst	0x00000058 ; undefined
 ccc:	0000005a 	.inst	0x0000005a ; undefined
 cd0:	9929c890 	.inst	0x9929c890 ; undefined
 cd4:	a5eb7934 	.inst	0xa5eb7934 ; undefined
 cd8:	88eebf30 	.inst	0x88eebf30 ; undefined
 cdc:	1c5871d9 	ldr	s25, b1b14 <_end@@Base+0xa9adc>
 ce0:	ce42fc50 	.inst	0xce42fc50 ; undefined
 ce4:	6d5c3978 	ldp	d24, d14, [x11,#448]
 ce8:	4ab23828 	eon	w8, w1, w18, asr #14
 cec:	40235661 	.inst	0x40235661 ; undefined
 cf0:	f605db0e 	.inst	0xf605db0e ; undefined
 cf4:	1f23747b 	fnmadd	s27, s3, s3, s29
 cf8:	000234b2 	.inst	0x000234b2 ; undefined
 cfc:	174c86ce 	b	fffffffffd322834 <_end@@Base+0xfffffffffd31a7fc>
 d00:	174e8aa6 	b	fffffffffd3a3798 <_end@@Base+0xfffffffffd39b760>
 d04:	45cb93d6 	.inst	0x45cb93d6 ; undefined
 d08:	ecd54542 	.inst	0xecd54542 ; undefined
 d0c:	7c92e3bb 	.inst	0x7c92e3bb ; undefined

Disassembly of section .dynstr:

0000000000000d10 <.dynstr>:
     d10:	62696c00 	.inst	0x62696c00 ; undefined
     d14:	2e676f6c 	umin	v12.4h, v27.4h, v7.4h
     d18:	6c006f73 	stnp	d19, d27, [x27]
     d1c:	69626269 	ldpsw	x9, x24, [x19,#-240]
     d20:	7265646e 	.inst	0x7265646e ; undefined
     d24:	006f732e 	.inst	0x006f732e ; undefined
     d28:	7562696c 	.inst	0x7562696c ; undefined
     d2c:	736c6974 	.inst	0x736c6974 ; undefined
     d30:	006f732e 	.inst	0x006f732e ; undefined
     d34:	6d62696c 	ldp	d12, d26, [x11,#-480]
     d38:	61696465 	.inst	0x61696465 ; undefined
     d3c:	006f732e 	.inst	0x006f732e ; undefined
     d40:	6d62696c 	ldp	d12, d26, [x11,#-480]
     d44:	61696465 	.inst	0x61696465 ; undefined
     d48:	2e6b646e 	umax	v14.4h, v3.4h, v11.4h
     d4c:	6c006f73 	stnp	d19, d27, [x27]
     d50:	6e616269 	rsubhn2	v9.8h, v19.4s, v1.4s
     d54:	696f7264 	ldpsw	x4, x28, [x19,#-136]
     d58:	75725f64 	.inst	0x75725f64 ; undefined
     d5c:	6d69746e 	ldp	d14, d29, [x3,#-368]
     d60:	6f732e65 	.inst	0x6f732e65 ; undefined
     d64:	62696c00 	.inst	0x62696c00 ; undefined
     d68:	2e2b2b63 	.inst	0x2e2b2b63 ; undefined
     d6c:	6c006f73 	stnp	d19, d27, [x27]
     d70:	2e636269 	rsubhn	v9.4h, v19.4s, v3.4s
     d74:	6c006f73 	stnp	d19, d27, [x27]
     d78:	2e6d6269 	rsubhn	v9.4h, v19.4s, v13.4s
     d7c:	6c006f73 	stnp	d19, d27, [x27]
     d80:	6c646269 	ldnp	d9, d24, [x19,#-448]
     d84:	006f732e 	.inst	0x006f732e ; undefined
     d88:	6162696c 	.inst	0x6162696c ; undefined
     d8c:	6964696d 	ldpsw	x13, x26, [x11,#-224]
     d90:	006f732e 	.inst	0x006f732e ; undefined
     d94:	78635f5f 	.inst	0x78635f5f ; undefined
     d98:	69665f61 	ldpsw	x1, x23, [x27,#-208]
     d9c:	696c616e 	ldpsw	x14, x24, [x11,#-160]
     da0:	4c00657a 	st1	{v26.8h-v28.8h}, [x11]
     da4:	00434249 	.inst	0x00434249 ; undefined
     da8:	78635f5f 	.inst	0x78635f5f ; undefined
     dac:	74615f61 	.inst	0x74615f61 ; undefined
     db0:	74697865 	.inst	0x74697865 ; undefined
     db4:	694d4100 	ldpsw	x0, x16, [x8,#104]
     db8:	65446964 	.inst	0x65446964 ; undefined
     dbc:	65636976 	.inst	0x65636976 ; undefined
     dc0:	6f72665f 	sqshlu	v31.2d, v18.2d, #50
     dc4:	76614a6d 	.inst	0x76614a6d ; undefined
     dc8:	4d410061 	.inst	0x4d410061 ; undefined
     dcc:	44696469 	.inst	0x44696469 ; undefined
     dd0:	63697665 	.inst	0x63697665 ; undefined
     dd4:	65675f65 	.inst	0x65675f65 ; undefined
     dd8:	6d754e74 	ldp	d20, d19, [x19,#-176]
     ddc:	75706e49 	.inst	0x75706e49 ; undefined
     de0:	726f5074 	.inst	0x726f5074 ; undefined
     de4:	41007374 	.inst	0x41007374 ; undefined
     de8:	6964694d 	ldpsw	x13, x26, [x10,#-224]
     dec:	69766544 	ldpsw	x4, x25, [x10,#-80]
     df0:	675f6563 	.inst	0x675f6563 ; undefined
     df4:	754e7465 	.inst	0x754e7465 ; undefined
     df8:	74754f6d 	.inst	0x74754f6d ; undefined
     dfc:	50747570 	adr	x16, e9caa <_end@@Base+0xe1c72>
     e00:	7374726f 	.inst	0x7374726f ; undefined
     e04:	694d4100 	ldpsw	x0, x16, [x8,#104]
     e08:	65446964 	.inst	0x65446964 ; undefined
     e0c:	65636976 	.inst	0x65636976 ; undefined
     e10:	7465675f 	.inst	0x7465675f ; undefined
     e14:	65707954 	.inst	0x65707954 ; undefined
     e18:	694d4100 	ldpsw	x0, x16, [x8,#104]
     e1c:	65446964 	.inst	0x65446964 ; undefined
     e20:	65636976 	.inst	0x65636976 ; undefined
     e24:	6c65725f 	ldnp	d31, d28, [x18,#-432]
     e28:	65736165 	.inst	0x65736165 ; undefined
     e2c:	694d4100 	ldpsw	x0, x16, [x8,#104]
     e30:	6e496964 	.inst	0x6e496964 ; undefined
     e34:	50747570 	adr	x16, e9ce2 <_end@@Base+0xe1caa>
     e38:	5f74726f 	sqdmlsl	s15, h19, v4.h[3]
     e3c:	736f6c63 	.inst	0x736f6c63 ; undefined
     e40:	4d410065 	.inst	0x4d410065 ; undefined
     e44:	49696469 	.inst	0x49696469 ; undefined
     e48:	7475706e 	.inst	0x7475706e ; undefined
     e4c:	74726f50 	.inst	0x74726f50 ; undefined
     e50:	65706f5f 	.inst	0x65706f5f ; undefined
     e54:	4d41006e 	.inst	0x4d41006e ; undefined
     e58:	49696469 	.inst	0x49696469 ; undefined
     e5c:	7475706e 	.inst	0x7475706e ; undefined
     e60:	74726f50 	.inst	0x74726f50 ; undefined
     e64:	6e65735f 	uabdl2	v31.4s, v26.8h, v5.8h
     e68:	4d410064 	.inst	0x4d410064 ; undefined
     e6c:	49696469 	.inst	0x49696469 ; undefined
     e70:	7475706e 	.inst	0x7475706e ; undefined
     e74:	74726f50 	.inst	0x74726f50 ; undefined
     e78:	6e65735f 	uabdl2	v31.4s, v26.8h, v5.8h
     e7c:	756c4664 	.inst	0x756c4664 ; undefined
     e80:	41006873 	.inst	0x41006873 ; undefined
     e84:	6964694d 	ldpsw	x13, x26, [x10,#-224]
     e88:	75706e49 	.inst	0x75706e49 ; undefined
     e8c:	726f5074 	.inst	0x726f5074 ; undefined
     e90:	65735f74 	.inst	0x65735f74 ; undefined
     e94:	6957646e 	ldpsw	x14, x25, [x3,#184]
     e98:	69546874 	ldpsw	x20, x26, [x3,#160]
     e9c:	7473656d 	.inst	0x7473656d ; undefined
     ea0:	00706d61 	.inst	0x00706d61 ; undefined
     ea4:	64694d41 	.inst	0x64694d41 ; undefined
     ea8:	74754f69 	.inst	0x74754f69 ; undefined
     eac:	50747570 	adr	x16, e9d5a <_end@@Base+0xe1d22>
     eb0:	5f74726f 	sqdmlsl	s15, h19, v4.h[3]
     eb4:	736f6c63 	.inst	0x736f6c63 ; undefined
     eb8:	4d410065 	.inst	0x4d410065 ; undefined
     ebc:	4f696469 	.inst	0x4f696469 ; undefined
     ec0:	75707475 	.inst	0x75707475 ; undefined
     ec4:	726f5074 	.inst	0x726f5074 ; undefined
     ec8:	706f5f74 	adr	x20, dfab7 <_end@@Base+0xd7a7f>
     ecc:	41006e65 	.inst	0x41006e65 ; undefined
     ed0:	6964694d 	ldpsw	x13, x26, [x10,#-224]
     ed4:	7074754f 	adr	x15, e9d7f <_end@@Base+0xe1d47>
     ed8:	6f507475 	uqshl	v21.2d, v3.2d, #16
     edc:	725f7472 	.inst	0x725f7472 ; undefined
     ee0:	69656365 	ldpsw	x5, x24, [x27,#-216]
     ee4:	5f006576 	.inst	0x5f006576 ; undefined
     ee8:	61374e5a 	.inst	0x61374e5a ; undefined
     eec:	6f72646e 	sqshlu	v14.2d, v3.2d, #50
     ef0:	30316469 	adr	x9, 63b7d <_end@@Base+0x5bb45>
     ef4:	74636556 	.inst	0x74636556 ; undefined
     ef8:	6d49726f 	ldp	d15, d28, [x19,#144]
     efc:	33316c70 	.inst	0x33316c70 ; undefined
     f00:	696e6966 	ldpsw	x6, x26, [x11,#-144]
     f04:	765f6873 	.inst	0x765f6873 ; undefined
     f08:	6f746365 	umlsl2	v5.4s, v27.8h, v4.h[3]
     f0c:	00764572 	.inst	0x00764572 ; undefined
     f10:	374e5a5f 	tbnz	wzr, #9, ffffffffffffda58 <_end@@Base+0xffffffffffff5a20>
     f14:	72646e61 	.inst	0x72646e61 ; undefined
     f18:	3164696f 	adds	w15, w11, #0x91a, lsl #12
     f1c:	63655630 	.inst	0x63655630 ; undefined
     f20:	49726f74 	.inst	0x49726f74 ; undefined
     f24:	436c706d 	.inst	0x436c706d ; undefined
     f28:	6a6d4532 	bics	w18, w9, w13, lsr #17
     f2c:	4e5a5f00 	.inst	0x4e5a5f00 ; undefined
     f30:	646e6137 	.inst	0x646e6137 ; undefined
     f34:	64696f72 	.inst	0x64696f72 ; undefined
     f38:	65563031 	.inst	0x65563031 ; undefined
     f3c:	726f7463 	.inst	0x726f7463 ; undefined
     f40:	6c706d49 	ldnp	d9, d27, [x10,#-256]
     f44:	76453244 	.inst	0x76453244 ; undefined
     f48:	4e5a5f00 	.inst	0x4e5a5f00 ; undefined
     f4c:	646e6137 	.inst	0x646e6137 ; undefined
     f50:	64696f72 	.inst	0x64696f72 ; undefined
     f54:	70733431 	adr	x17, e75db <_end@@Base+0xdf5a3>
     f58:	7065725f 	adr	xzr, cbda3 <_end@@Base+0xc3d6b>
     f5c:	5f74726f 	sqdmlsl	s15, h19, v4.h[3]
     f60:	65636172 	.inst	0x65636172 ; undefined
     f64:	5f007645 	.inst	0x5f007645 ; undefined
     f68:	61374e5a 	.inst	0x61374e5a ; undefined
     f6c:	6f72646e 	sqshlu	v14.2d, v3.2d, #50
     f70:	30326469 	adr	x9, 65bfd <_end@@Base+0x5dbc5>
     f74:	6e696269 	rsubhn2	v9.8h, v19.4s, v9.4s
     f78:	46726564 	.inst	0x46726564 ; undefined
     f7c:	614a726f 	.inst	0x614a726f ; undefined
     f80:	624f6176 	.inst	0x624f6176 ; undefined
     f84:	7463656a 	.inst	0x7463656a ; undefined
     f88:	5f375045 	fmls	h5, h2, v7.h[3]
     f8c:	45494e4a 	.inst	0x45494e4a ; undefined
     f90:	3850766e 	ldrb	w14, [x19],#-249
     f94:	626f6a5f 	.inst	0x626f6a5f ; undefined
     f98:	7463656a 	.inst	0x7463656a ; undefined
     f9c:	4e5a5f00 	.inst	0x4e5a5f00 ; undefined
     fa0:	646e6137 	.inst	0x646e6137 ; undefined
     fa4:	64696f72 	.inst	0x64696f72 ; undefined
     fa8:	64696d34 	.inst	0x64696d34 ; undefined
     fac:	6d363169 	stp	d9, d12, [x11,#-160]
     fb0:	4d646946 	.inst	0x4d646946 ; undefined
     fb4:	44696469 	.inst	0x44696469 ; undefined
     fb8:	63697665 	.inst	0x63697665 ; undefined
     fbc:	45644965 	.inst	0x45644965 ; undefined
     fc0:	4e5a5f00 	.inst	0x4e5a5f00 ; undefined
     fc4:	646e6137 	.inst	0x646e6137 ; undefined
     fc8:	64696f72 	.inst	0x64696f72 ; undefined
     fcc:	64696d34 	.inst	0x64696d34 ; undefined
     fd0:	67383169 	.inst	0x67383169 ; undefined
     fd4:	4d646946 	.inst	0x4d646946 ; undefined
     fd8:	44696469 	.inst	0x44696469 ; undefined
     fdc:	63697665 	.inst	0x63697665 ; undefined
     fe0:	666e4965 	.inst	0x666e4965 ; undefined
     fe4:	5f00456f 	.inst	0x5f00456f ; undefined
     fe8:	61374e5a 	.inst	0x61374e5a ; undefined
     fec:	6f72646e 	sqshlu	v14.2d, v3.2d, #50
     ff0:	6d346469 	stp	d9, d25, [x3,#-192]
     ff4:	32696469 	.inst	0x32696469 ; undefined
     ff8:	69466730 	ldpsw	x16, x25, [x25,#48]
     ffc:	64694d64 	.inst	0x64694d64 ; undefined
    1000:	74614e69 	.inst	0x74614e69 ; undefined
    1004:	48657669 	.inst	0x48657669 ; undefined
    1008:	6c646e61 	ldnp	d1, d27, [x19,#-448]
    100c:	5f004565 	.inst	0x5f004565 ; undefined
    1010:	61374e5a 	.inst	0x61374e5a ; undefined
    1014:	6f72646e 	sqshlu	v14.2d, v3.2d, #50
    1018:	6d346469 	stp	d9, d25, [x3,#-192]
    101c:	32696469 	.inst	0x32696469 ; undefined
    1020:	69466736 	ldpsw	x22, x25, [x25,#48]
    1024:	64694d64 	.inst	0x64694d64 ; undefined
    1028:	76654469 	.inst	0x76654469 ; undefined
    102c:	53656369 	.inst	0x53656369 ; undefined
    1030:	65767265 	.inst	0x65767265 ; undefined
    1034:	6e694272 	raddhn2	v18.8h, v19.4s, v9.4s
    1038:	45726564 	.inst	0x45726564 ; undefined
    103c:	4e5a5f00 	.inst	0x4e5a5f00 ; undefined
    1040:	646e6137 	.inst	0x646e6137 ; undefined
    1044:	64696f72 	.inst	0x64696f72 ; undefined
    1048:	69424237 	ldpsw	x23, x16, [x17,#16]
    104c:	7265646e 	.inst	0x7265646e ; undefined
    1050:	76453143 	.inst	0x76453143 ; undefined
    1054:	4e5a5f00 	.inst	0x4e5a5f00 ; undefined
    1058:	646e6137 	.inst	0x646e6137 ; undefined
    105c:	64696f72 	.inst	0x64696f72 ; undefined
    1060:	72745337 	.inst	0x72745337 ; undefined
    1064:	38676e69 	.inst	0x38676e69 ; undefined
    1068:	76453144 	.inst	0x76453144 ; undefined
    106c:	4e5a5f00 	.inst	0x4e5a5f00 ; undefined
    1070:	646e6137 	.inst	0x646e6137 ; undefined
    1074:	64696f72 	.inst	0x64696f72 ; undefined
    1078:	72745338 	.inst	0x72745338 ; undefined
    107c:	31676e69 	adds	w9, w19, #0x9db, lsl #12
    1080:	45314336 	.inst	0x45314336 ; undefined
    1084:	30534b52 	adr	x18, a79ed <_end@@Base+0x9f9b5>
    1088:	5a5f005f 	.inst	0x5a5f005f ; undefined
    108c:	6e61374e 	cmhi	v14.8h, v26.8h, v1.8h
    1090:	696f7264 	ldpsw	x4, x28, [x19,#-136]
    1094:	74533864 	.inst	0x74533864 ; undefined
    1098:	676e6972 	.inst	0x676e6972 ; undefined
    109c:	31433631 	adds	w17, w17, #0xcd, lsl #12
    10a0:	5f007645 	.inst	0x5f007645 ; undefined
    10a4:	61374e5a 	.inst	0x61374e5a ; undefined
    10a8:	6f72646e 	sqshlu	v14.2d, v3.2d, #50
    10ac:	53386469 	.inst	0x53386469 ; undefined
    10b0:	6e697274 	uabdl2	v20.4s, v19.8h, v9.8h
    10b4:	44363167 	.inst	0x44363167 ; undefined
    10b8:	00764531 	.inst	0x00764531 ; undefined
    10bc:	4b4e5a5f 	sub	wzr, w18, w14, lsr #22
    10c0:	646e6137 	.inst	0x646e6137 ; undefined
    10c4:	64696f72 	.inst	0x64696f72 ; undefined
    10c8:	66655237 	.inst	0x66655237 ; undefined
    10cc:	65736142 	.inst	0x65736142 ; undefined
    10d0:	63656439 	.inst	0x63656439 ; undefined
    10d4:	6f727453 	uqshl	v19.2d, v2.2d, #50
    10d8:	5045676e 	adr	x14, 8bdc6 <_end@@Base+0x83d8e>
    10dc:	5f00764b 	.inst	0x5f00764b ; undefined
    10e0:	374b4e5a 	tbnz	w26, #9, 7aa8 <_edata@@Base+0x138>
    10e4:	72646e61 	.inst	0x72646e61 ; undefined
    10e8:	3764696f 	tbnz	w15, #12, ffffffffffff9e14 <_end@@Base+0xffffffffffff1ddc>
    10ec:	42666552 	.inst	0x42666552 ; undefined
    10f0:	39657361 	ldrb	w1, [x27,#2396]
    10f4:	53636e69 	.inst	0x53636e69 ; undefined
    10f8:	6e6f7274 	uabdl2	v20.4s, v19.8h, v15.8h
    10fc:	4b504567 	sub	w7, w11, w16, lsr #17
    1100:	5a5f0076 	.inst	0x5a5f0076 ; undefined
    1104:	3374534e 	.inst	0x3374534e ; undefined
    1108:	35315f5f 	cbnz	wzr, 63cf0 <_end@@Base+0x5bcb8>
    110c:	6574756d 	.inst	0x6574756d ; undefined
    1110:	6f6c3478 	ursra	v24.2d, v3.2d, #20
    1114:	76456b63 	.inst	0x76456b63 ; undefined
    1118:	4e5a5f00 	.inst	0x4e5a5f00 ; undefined
    111c:	5f337453 	sqshl	s19, s2, #19
    1120:	6d35315f 	stp	d31, d12, [x10,#-176]
    1124:	78657475 	.inst	0x78657475 ; undefined
    1128:	6c6e7536 	ldnp	d22, d29, [x9,#-288]
    112c:	456b636f 	.inst	0x456b636f ; undefined
    1130:	5a5f0076 	.inst	0x5a5f0076 ; undefined
    1134:	3374534e 	.inst	0x3374534e ; undefined
    1138:	35315f5f 	cbnz	wzr, 63d20 <_end@@Base+0x5bce8>
    113c:	6574756d 	.inst	0x6574756d ; undefined
    1140:	45314478 	.inst	0x45314478 ; undefined
    1144:	5a5f0076 	.inst	0x5a5f0076 ; undefined
    1148:	374e5654 	tbnz	w20, #9, ffffffffffffdc10 <_end@@Base+0xffffffffffff5bd8>
    114c:	72646e61 	.inst	0x72646e61 ; undefined
    1150:	3264696f 	.inst	0x3264696f ; undefined
    1154:	3731736f 	tbnz	w15, #6, 3fc0 <AMidiInputPort_sendFlush@@Base+0x2e0>
    1158:	73726550 	.inst	0x73726550 ; undefined
    115c:	61747369 	.inst	0x61747369 ; undefined
    1160:	42656c62 	.inst	0x42656c62 ; undefined
    1164:	6c646e75 	ldnp	d21, d27, [x19,#-448]
    1168:	5f004565 	.inst	0x5f004565 ; undefined
    116c:	4e56545a 	.inst	0x4e56545a ; undefined
    1170:	646e6137 	.inst	0x646e6137 ; undefined
    1174:	64696f72 	.inst	0x64696f72 ; undefined
    1178:	64656d35 	.inst	0x64656d35 ; undefined
    117c:	6d346169 	stp	d9, d24, [x11,#-192]
    1180:	31696469 	adds	w9, w3, #0xa59, lsl #12
    1184:	64694d34 	.inst	0x64694d34 ; undefined
    1188:	76654469 	.inst	0x76654469 ; undefined
    118c:	49656369 	.inst	0x49656369 ; undefined
    1190:	456f666e 	.inst	0x456f666e ; undefined
    1194:	645a5f00 	.inst	0x645a5f00 ; undefined
    1198:	0076506c 	.inst	0x0076506c ; undefined
    119c:	776e5a5f 	.inst	0x776e5a5f ; undefined
    11a0:	5f5f006d 	.inst	0x5f5f006d ; undefined
    11a4:	72646e61 	.inst	0x72646e61 ; undefined
    11a8:	5f64696f 	.inst	0x5f64696f ; undefined
    11ac:	5f676f6c 	.inst	0x5f676f6c ; undefined
    11b0:	65737361 	.inst	0x65737361 ; undefined
    11b4:	4c007472 	st1	{v18.8h}, [x3]
    11b8:	4f4c4249 	.inst	0x4f4c4249 ; undefined
    11bc:	5f5f0047 	.inst	0x5f5f0047 ; undefined
    11c0:	72646e61 	.inst	0x72646e61 ; undefined
    11c4:	5f64696f 	.inst	0x5f64696f ; undefined
    11c8:	5f676f6c 	.inst	0x5f676f6c ; undefined
    11cc:	6e697270 	uabdl2	v16.4s, v19.8h, v9.8h
    11d0:	5f5f0074 	.inst	0x5f5f0074 ; undefined
    11d4:	6e727265 	uabdl2	v5.4s, v19.8h, v18.8h
    11d8:	5f5f006f 	.inst	0x5f5f006f ; undefined
    11dc:	636d656d 	.inst	0x636d656d ; undefined
    11e0:	635f7970 	.inst	0x635f7970 ; undefined
    11e4:	5f006b68 	.inst	0x5f006b68 ; undefined
    11e8:	6c6f705f 	ldnp	d31, d28, [x2,#-272]
    11ec:	68635f6c 	.inst	0x68635f6c ; undefined
    11f0:	5f5f006b 	.inst	0x5f5f006b ; undefined
    11f4:	64616572 	.inst	0x64616572 ; undefined
    11f8:	6b68635f 	.inst	0x6b68635f ; undefined
    11fc:	735f5f00 	.inst	0x735f5f00 ; undefined
    1200:	6b636174 	.inst	0x6b636174 ; undefined
    1204:	6b68635f 	.inst	0x6b68635f ; undefined
    1208:	6961665f 	ldpsw	xzr, x25, [x18,#-248]
    120c:	5f5f006c 	.inst	0x5f5f006c ; undefined
    1210:	74697277 	.inst	0x74697277 ; undefined
    1214:	68635f65 	.inst	0x68635f65 ; undefined
    1218:	494c006b 	.inst	0x494c006b ; undefined
    121c:	4e5f4342 	.inst	0x4e5f4342 ; undefined
    1220:	646e6100 	.inst	0x646e6100 ; undefined
    1224:	64696f72 	.inst	0x64696f72 ; undefined
    1228:	7364665f 	.inst	0x7364665f ; undefined
    122c:	635f6e61 	.inst	0x635f6e61 ; undefined
    1230:	65736f6c 	.inst	0x65736f6c ; undefined
    1234:	7469775f 	.inst	0x7469775f ; undefined
    1238:	61745f68 	.inst	0x61745f68 ; undefined
    123c:	494c0067 	.inst	0x494c0067 ; undefined
    1240:	515f4342 	sub	w2, w26, #0x7d0, lsl #12
    1244:	646e6100 	.inst	0x646e6100 ; undefined
    1248:	64696f72 	.inst	0x64696f72 ; undefined
    124c:	7364665f 	.inst	0x7364665f ; undefined
    1250:	635f6e61 	.inst	0x635f6e61 ; undefined
    1254:	74616572 	.inst	0x74616572 ; undefined
    1258:	776f5f65 	.inst	0x776f5f65 ; undefined
    125c:	5f72656e 	.inst	0x5f72656e ; undefined
    1260:	00676174 	.inst	0x00676174 ; undefined
    1264:	72646e61 	.inst	0x72646e61 ; undefined
    1268:	5f64696f 	.inst	0x5f64696f ; undefined
    126c:	61736466 	.inst	0x61736466 ; undefined
    1270:	78655f6e 	.inst	0x78655f6e ; undefined
    1274:	6e616863 	fcvtxn2	v3.4s, v3.2d
    1278:	6f5f6567 	sqshlu	v7.2d, v11.2d, #31
    127c:	72656e77 	.inst	0x72656e77 ; undefined
    1280:	6761745f 	.inst	0x6761745f ; undefined
    1284:	6f6c6300 	umlsl2	v0.4s, v24.8h, v12.h[2]
    1288:	6d006573 	stp	d19, d25, [x11]
    128c:	70636d65 	adr	x5, c803b <_end@@Base+0xc0003>
    1290:	656d0079 	.inst	0x656d0079 ; undefined
    1294:	766f6d6d 	.inst	0x766f6d6d ; undefined
    1298:	5a5f0065 	.inst	0x5a5f0065 ; undefined
    129c:	6e61374e 	cmhi	v14.8h, v26.8h, v1.8h
    12a0:	696f7264 	ldpsw	x4, x28, [x19,#-136]
    12a4:	49303164 	.inst	0x49303164 ; undefined
    12a8:	65746e49 	.inst	0x65746e49 ; undefined
    12ac:	63616672 	.inst	0x63616672 ; undefined
    12b0:	45324365 	.inst	0x45324365 ; undefined
    12b4:	5a5f0076 	.inst	0x5a5f0076 ; undefined
    12b8:	6e61374e 	cmhi	v14.8h, v26.8h, v1.8h
    12bc:	696f7264 	ldpsw	x4, x28, [x19,#-136]
    12c0:	49303164 	.inst	0x49303164 ; undefined
    12c4:	65746e49 	.inst	0x65746e49 ; undefined
    12c8:	63616672 	.inst	0x63616672 ; undefined
    12cc:	45304465 	.inst	0x45304465 ; undefined
    12d0:	5a5f0076 	.inst	0x5a5f0076 ; undefined
    12d4:	6e61374e 	cmhi	v14.8h, v26.8h, v1.8h
    12d8:	696f7264 	ldpsw	x4, x28, [x19,#-136]
    12dc:	49303164 	.inst	0x49303164 ; undefined
    12e0:	65746e49 	.inst	0x65746e49 ; undefined
    12e4:	63616672 	.inst	0x63616672 ; undefined
    12e8:	45314465 	.inst	0x45314465 ; undefined
    12ec:	5a5f0076 	.inst	0x5a5f0076 ; undefined
    12f0:	6e61374e 	cmhi	v14.8h, v26.8h, v1.8h
    12f4:	696f7264 	ldpsw	x4, x28, [x19,#-136]
    12f8:	49303164 	.inst	0x49303164 ; undefined
    12fc:	65746e49 	.inst	0x65746e49 ; undefined
    1300:	63616672 	.inst	0x63616672 ; undefined
    1304:	45324465 	.inst	0x45324465 ; undefined
    1308:	5a5f0076 	.inst	0x5a5f0076 ; undefined
    130c:	6e61374e 	cmhi	v14.8h, v26.8h, v1.8h
    1310:	696f7264 	ldpsw	x4, x28, [x19,#-136]
    1314:	61503664 	.inst	0x61503664 ; undefined
    1318:	6c656372 	ldnp	d18, d24, [x27,#-432]
    131c:	72773031 	.inst	0x72773031 ; undefined
    1320:	49657469 	.inst	0x49657469 ; undefined
    1324:	3233746e 	orr	w14, w3, #0xffffe7ff
    1328:	5f006945 	.inst	0x5f006945 ; undefined
    132c:	61374e5a 	.inst	0x61374e5a ; undefined
    1330:	6f72646e 	sqshlu	v14.2d, v3.2d, #50
    1334:	50366469 	adr	x9, 6dfc2 <_end@@Base+0x65f8a>
    1338:	65637261 	.inst	0x65637261 ; undefined
    133c:	7735316c 	.inst	0x7735316c ; undefined
    1340:	65746972 	.inst	0x65746972 ; undefined
    1344:	63726150 	.inst	0x63726150 ; undefined
    1348:	62616c65 	.inst	0x62616c65 ; undefined
    134c:	5245656c 	.inst	0x5245656c ; undefined
    1350:	5f534e4b 	.inst	0x5f534e4b ; undefined
    1354:	61503031 	.inst	0x61503031 ; undefined
    1358:	6c656372 	ldnp	d18, d24, [x27,#-432]
    135c:	656c6261 	.inst	0x656c6261 ; undefined
    1360:	5a5f0045 	.inst	0x5a5f0045 ; undefined
    1364:	6e61374e 	cmhi	v14.8h, v26.8h, v1.8h
    1368:	696f7264 	ldpsw	x4, x28, [x19,#-136]
    136c:	61503664 	.inst	0x61503664 ; undefined
    1370:	6c656372 	ldnp	d18, d24, [x27,#-432]
    1374:	72773731 	.inst	0x72773731 ; undefined
    1378:	53657469 	.inst	0x53657469 ; undefined
    137c:	6e6f7274 	uabdl2	v20.4s, v19.8h, v15.8h
    1380:	6e694267 	raddhn2	v7.8h, v19.4s, v9.4s
    1384:	45726564 	.inst	0x45726564 ; undefined
    1388:	534e4b52 	.inst	0x534e4b52 ; undefined
    138c:	7073325f 	adr	xzr, e79d7 <_end@@Base+0xdf99f>
    1390:	5f534e49 	.inst	0x5f534e49 ; undefined
    1394:	69424937 	ldpsw	x23, x18, [x9,#16]
    1398:	7265646e 	.inst	0x7265646e ; undefined
    139c:	00454545 	.inst	0x00454545 ; undefined
    13a0:	374e5a5f 	tbnz	wzr, #9, ffffffffffffdee8 <_end@@Base+0xffffffffffff5eb0>
    13a4:	72646e61 	.inst	0x72646e61 ; undefined
    13a8:	3664696f 	tbz	w15, #12, ffffffffffffa0d4 <_end@@Base+0xffffffffffff209c>
    13ac:	63726150 	.inst	0x63726150 ; undefined
    13b0:	39316c65 	strb	w5, [x3,#3163]
    13b4:	74697277 	.inst	0x74697277 ; undefined
    13b8:	746e4965 	.inst	0x746e4965 ; undefined
    13bc:	61667265 	.inst	0x61667265 ; undefined
    13c0:	6f546563 	sqshlu	v3.2d, v11.2d, #20
    13c4:	456e656b 	.inst	0x456e656b ; undefined
    13c8:	534e4b52 	.inst	0x534e4b52 ; undefined
    13cc:	7453385f 	.inst	0x7453385f ; undefined
    13d0:	676e6972 	.inst	0x676e6972 ; undefined
    13d4:	00453631 	.inst	0x00453631 ; undefined
    13d8:	374e5a5f 	tbnz	wzr, #9, ffffffffffffdf20 <_end@@Base+0xffffffffffff5ee8>
    13dc:	72646e61 	.inst	0x72646e61 ; undefined
    13e0:	3664696f 	tbz	w15, #12, ffffffffffffa10c <_end@@Base+0xffffffffffff20d4>
    13e4:	63726150 	.inst	0x63726150 ; undefined
    13e8:	35326c65 	cbnz	w5, 66174 <_end@@Base+0x5e13c>
    13ec:	74697277 	.inst	0x74697277 ; undefined
    13f0:	696e5565 	ldpsw	x5, x21, [x11,#-144]
    13f4:	46657571 	.inst	0x46657571 ; undefined
    13f8:	44656c69 	.inst	0x44656c69 ; undefined
    13fc:	72637365 	.inst	0x72637365 ; undefined
    1400:	6f747069 	.inst	0x6f747069 ; undefined
    1404:	4b524572 	sub	w18, w11, w18, lsr #17
    1408:	345f534e 	cbz	w14, bfe70 <_end@@Base+0xb7e38>
    140c:	65736162 	.inst	0x65736162 ; undefined
    1410:	6e753431 	cmhi	v17.8h, v1.8h, v21.8h
    1414:	65757169 	.inst	0x65757169 ; undefined
    1418:	5f64665f 	.inst	0x5f64665f ; undefined
    141c:	6c706d69 	ldnp	d9, d27, [x11,#-256]
    1420:	31534e49 	adds	w9, w18, #0x4d3, lsl #12
    1424:	4433315f 	.inst	0x4433315f ; undefined
    1428:	75616665 	.inst	0x75616665 ; undefined
    142c:	6c43746c 	ldnp	d12, d29, [x3,#48]
    1430:	7265736f 	.inst	0x7265736f ; undefined
    1434:	00454545 	.inst	0x00454545 ; undefined
    1438:	374e5a5f 	tbnz	wzr, #9, ffffffffffffdf80 <_end@@Base+0xffffffffffff5f48>
    143c:	72646e61 	.inst	0x72646e61 ; undefined
    1440:	3664696f 	tbz	w15, #12, ffffffffffffa16c <_end@@Base+0xffffffffffff2134>
    1444:	63726150 	.inst	0x63726150 ; undefined
    1448:	31436c65 	adds	w5, w3, #0xdb, lsl #12
    144c:	5f007645 	.inst	0x5f007645 ; undefined
    1450:	61374e5a 	.inst	0x61374e5a ; undefined
    1454:	6f72646e 	sqshlu	v14.2d, v3.2d, #50
    1458:	50366469 	adr	x9, 6e0e6 <_end@@Base+0x660ae>
    145c:	65637261 	.inst	0x65637261 ; undefined
    1460:	4531446c 	.inst	0x4531446c ; undefined
    1464:	5a5f0076 	.inst	0x5a5f0076 ; undefined
    1468:	6e61374e 	cmhi	v14.8h, v26.8h, v1.8h
    146c:	696f7264 	ldpsw	x4, x28, [x19,#-136]
    1470:	69623664 	ldpsw	x4, x13, [x19,#-240]
    1474:	7265646e 	.inst	0x7265646e ; undefined
    1478:	61745336 	.inst	0x61745336 ; undefined
    147c:	31737574 	adds	w20, w11, #0xcdd, lsl #12
    1480:	61657234 	.inst	0x61657234 ; undefined
    1484:	6f724664 	sri	v4.2d, v19.2d, #14
    1488:	7261506d 	.inst	0x7261506d ; undefined
    148c:	456c6563 	.inst	0x456c6563 ; undefined
    1490:	534e4b52 	.inst	0x534e4b52 ; undefined
    1494:	6150365f 	.inst	0x6150365f ; undefined
    1498:	6c656372 	ldnp	d18, d24, [x27,#-432]
    149c:	5a5f0045 	.inst	0x5a5f0045 ; undefined
    14a0:	6e61374e 	cmhi	v14.8h, v26.8h, v1.8h
    14a4:	696f7264 	ldpsw	x4, x28, [x19,#-136]
    14a8:	69623664 	ldpsw	x4, x13, [x19,#-240]
    14ac:	7265646e 	.inst	0x7265646e ; undefined
    14b0:	61745336 	.inst	0x61745336 ; undefined
    14b4:	31737574 	adds	w20, w11, #0xcdd, lsl #12
    14b8:	74657334 	.inst	0x74657334 ; undefined
    14bc:	6d6f7246 	ldp	d6, d28, [x18,#-272]
    14c0:	74617453 	.inst	0x74617453 ; undefined
    14c4:	45547375 	.inst	0x45547375 ; undefined
    14c8:	5a5f0069 	.inst	0x5a5f0069 ; undefined
    14cc:	6e61374e 	cmhi	v14.8h, v26.8h, v1.8h
    14d0:	696f7264 	ldpsw	x4, x28, [x19,#-136]
    14d4:	65523764 	.inst	0x65523764 ; undefined
    14d8:	73614266 	.inst	0x73614266 ; undefined
    14dc:	6f303165 	.inst	0x6f303165 ; undefined
    14e0:	7269466e 	.inst	0x7269466e ; undefined
    14e4:	65527473 	.inst	0x65527473 ; undefined
    14e8:	00764566 	.inst	0x00764566 ; undefined
    14ec:	374e5a5f 	tbnz	wzr, #9, ffffffffffffe034 <_end@@Base+0xffffffffffff5ffc>
    14f0:	72646e61 	.inst	0x72646e61 ; undefined
    14f4:	3764696f 	tbnz	w15, #12, ffffffffffffa220 <_end@@Base+0xffffffffffff21e8>
    14f8:	42666552 	.inst	0x42666552 ; undefined
    14fc:	31657361 	adds	w1, w27, #0x95c, lsl #12
    1500:	4c6e6f33 	.inst	0x4c6e6f33 ; undefined
    1504:	57747361 	.inst	0x57747361 ; undefined
    1508:	526b6165 	.inst	0x526b6165 ; undefined
    150c:	50456665 	adr	x5, 8c1da <_end@@Base+0x841a2>
    1510:	5f00764b 	.inst	0x5f00764b ; undefined
    1514:	61374e5a 	.inst	0x61374e5a ; undefined
    1518:	6f72646e 	sqshlu	v14.2d, v3.2d, #50
    151c:	52376469 	eor	w9, w3, #0xfffffe07
    1520:	61426665 	.inst	0x61426665 ; undefined
    1524:	35316573 	cbnz	w19, 641d0 <_end@@Base+0x5c198>
    1528:	614c6e6f 	.inst	0x614c6e6f ; undefined
    152c:	74537473 	.inst	0x74537473 ; undefined
    1530:	676e6f72 	.inst	0x676e6f72 ; undefined
    1534:	45666552 	.inst	0x45666552 ; undefined
    1538:	00764b50 	.inst	0x00764b50 ; undefined
    153c:	374e5a5f 	tbnz	wzr, #9, ffffffffffffe084 <_end@@Base+0xffffffffffff604c>
    1540:	72646e61 	.inst	0x72646e61 ; undefined
    1544:	3764696f 	tbnz	w15, #12, ffffffffffffa270 <_end@@Base+0xffffffffffff2238>
    1548:	42666552 	.inst	0x42666552 ; undefined
    154c:	32657361 	.inst	0x32657361 ; undefined
    1550:	496e6f30 	.inst	0x496e6f30 ; undefined
    1554:	7453636e 	.inst	0x7453636e ; undefined
    1558:	676e6f72 	.inst	0x676e6f72 ; undefined
    155c:	65747441 	.inst	0x65747441 ; undefined
    1560:	6574706d 	.inst	0x6574706d ; undefined
    1564:	506a4564 	adr	x4, d5e12 <_end@@Base+0xcddda>
    1568:	5f00764b 	.inst	0x5f00764b ; undefined
    156c:	61374e5a 	.inst	0x61374e5a ; undefined
    1570:	6f72646e 	sqshlu	v14.2d, v3.2d, #50
    1574:	52376469 	eor	w9, w3, #0xfffffe07
    1578:	61426665 	.inst	0x61426665 ; undefined
    157c:	32436573 	.inst	0x32436573 ; undefined
    1580:	5f007645 	.inst	0x5f007645 ; undefined
    1584:	61374e5a 	.inst	0x61374e5a ; undefined
    1588:	6f72646e 	sqshlu	v14.2d, v3.2d, #50
    158c:	52376469 	eor	w9, w3, #0xfffffe07
    1590:	61426665 	.inst	0x61426665 ; undefined
    1594:	32446573 	.inst	0x32446573 ; undefined
    1598:	5f007645 	.inst	0x5f007645 ; undefined
    159c:	61374e5a 	.inst	0x61374e5a ; undefined
    15a0:	6f72646e 	sqshlu	v14.2d, v3.2d, #50
    15a4:	53376469 	.inst	0x53376469 ; undefined
    15a8:	6e697274 	uabdl2	v20.4s, v19.8h, v9.8h
    15ac:	31433867 	adds	w7, w3, #0xce, lsl #12
    15b0:	534b5245 	.inst	0x534b5245 ; undefined
    15b4:	5f005f30 	.inst	0x5f005f30 ; undefined
    15b8:	61374e5a 	.inst	0x61374e5a ; undefined
    15bc:	6f72646e 	sqshlu	v14.2d, v3.2d, #50
    15c0:	53376469 	.inst	0x53376469 ; undefined
    15c4:	6e697274 	uabdl2	v20.4s, v19.8h, v9.8h
    15c8:	31433867 	adds	w7, w3, #0xce, lsl #12
    15cc:	5f007645 	.inst	0x5f007645 ; undefined
    15d0:	61374e5a 	.inst	0x61374e5a ; undefined
    15d4:	6f72646e 	sqshlu	v14.2d, v3.2d, #50
    15d8:	53386469 	.inst	0x53386469 ; undefined
    15dc:	6e697274 	uabdl2	v20.4s, v19.8h, v9.8h
    15e0:	43363167 	.inst	0x43363167 ; undefined
    15e4:	4b504531 	sub	w17, w9, w16, lsr #17
    15e8:	5a5f0063 	.inst	0x5a5f0063 ; undefined
    15ec:	6e61374e 	cmhi	v14.8h, v26.8h, v1.8h
    15f0:	696f7264 	ldpsw	x4, x28, [x19,#-136]
    15f4:	70423964 	adr	x4, 85d23 <_end@@Base+0x7dceb>
    15f8:	42666552 	.inst	0x42666552 ; undefined
    15fc:	31657361 	adds	w1, w27, #0x95c, lsl #12
    1600:	466e6f30 	.inst	0x466e6f30 ; undefined
    1604:	74737269 	.inst	0x74737269 ; undefined
    1608:	45666552 	.inst	0x45666552 ; undefined
    160c:	5a5f0076 	.inst	0x5a5f0076 ; undefined
    1610:	6e61374e 	cmhi	v14.8h, v26.8h, v1.8h
    1614:	696f7264 	ldpsw	x4, x28, [x19,#-136]
    1618:	70423964 	adr	x4, 85d47 <_end@@Base+0x7dd0f>
    161c:	42666552 	.inst	0x42666552 ; undefined
    1620:	31657361 	adds	w1, w27, #0x95c, lsl #12
    1624:	4c6e6f35 	.inst	0x4c6e6f35 ; undefined
    1628:	53747361 	.inst	0x53747361 ; undefined
    162c:	6e6f7274 	uabdl2	v20.4s, v19.8h, v15.8h
    1630:	66655267 	.inst	0x66655267 ; undefined
    1634:	764b5045 	.inst	0x764b5045 ; undefined
    1638:	4e5a5f00 	.inst	0x4e5a5f00 ; undefined
    163c:	646e6137 	.inst	0x646e6137 ; undefined
    1640:	64696f72 	.inst	0x64696f72 ; undefined
    1644:	52704239 	.inst	0x52704239 ; undefined
    1648:	61426665 	.inst	0x61426665 ; undefined
    164c:	30326573 	adr	x19, 662f9 <_end@@Base+0x5e2c1>
    1650:	6e496e6f 	.inst	0x6e496e6f ; undefined
    1654:	72745363 	.inst	0x72745363 ; undefined
    1658:	41676e6f 	.inst	0x41676e6f ; undefined
    165c:	6d657474 	ldp	d20, d29, [x3,#-432]
    1660:	64657470 	.inst	0x64657470 ; undefined
    1664:	4b506a45 	sub	w5, w18, w16, lsr #26
    1668:	5a5f0076 	.inst	0x5a5f0076 ; undefined
    166c:	6e61374e 	cmhi	v14.8h, v26.8h, v1.8h
    1670:	696f7264 	ldpsw	x4, x28, [x19,#-136]
    1674:	70423964 	adr	x4, 85da3 <_end@@Base+0x7dd6b>
    1678:	42666552 	.inst	0x42666552 ; undefined
    167c:	43657361 	.inst	0x43657361 ; undefined
    1680:	4b524532 	sub	w18, w9, w18, lsr #17
    1684:	325f534e 	.inst	0x325f534e ; undefined
    1688:	4e497073 	.inst	0x4e497073 ; undefined
    168c:	49375f53 	.inst	0x49375f53 ; undefined
    1690:	646e6942 	.inst	0x646e6942 ; undefined
    1694:	45457265 	.inst	0x45457265 ; undefined
    1698:	5a5f0045 	.inst	0x5a5f0045 ; undefined
    169c:	6e61374e 	cmhi	v14.8h, v26.8h, v1.8h
    16a0:	696f7264 	ldpsw	x4, x28, [x19,#-136]
    16a4:	70423964 	adr	x4, 85dd3 <_end@@Base+0x7dd9b>
    16a8:	42666552 	.inst	0x42666552 ; undefined
    16ac:	44657361 	.inst	0x44657361 ; undefined
    16b0:	00764530 	.inst	0x00764530 ; undefined
    16b4:	374e5a5f 	tbnz	wzr, #9, ffffffffffffe1fc <_end@@Base+0xffffffffffff61c4>
    16b8:	72646e61 	.inst	0x72646e61 ; undefined
    16bc:	3964696f 	ldrb	w15, [x11,#2330]
    16c0:	65527042 	.inst	0x65527042 ; undefined
    16c4:	73614266 	.inst	0x73614266 ; undefined
    16c8:	45314465 	.inst	0x45314465 ; undefined
    16cc:	5a5f0076 	.inst	0x5a5f0076 ; undefined
    16d0:	6e61374e 	cmhi	v14.8h, v26.8h, v1.8h
    16d4:	696f7264 	ldpsw	x4, x28, [x19,#-136]
    16d8:	70423964 	adr	x4, 85e07 <_end@@Base+0x7ddcf>
    16dc:	42666552 	.inst	0x42666552 ; undefined
    16e0:	44657361 	.inst	0x44657361 ; undefined
    16e4:	00764532 	.inst	0x00764532 ; undefined
    16e8:	4b4e5a5f 	sub	wzr, w18, w14, lsr #22
    16ec:	646e6137 	.inst	0x646e6137 ; undefined
    16f0:	64696f72 	.inst	0x64696f72 ; undefined
    16f4:	72615036 	.inst	0x72615036 ; undefined
    16f8:	316c6563 	adds	w3, w11, #0xb19, lsl #12
    16fc:	61657234 	.inst	0x61657234 ; undefined
    1700:	72615064 	.inst	0x72615064 ; undefined
    1704:	616c6563 	.inst	0x616c6563 ; undefined
    1708:	45656c62 	.inst	0x45656c62 ; undefined
    170c:	5f534e50 	.inst	0x5f534e50 ; undefined
    1710:	61503031 	.inst	0x61503031 ; undefined
    1714:	6c656372 	ldnp	d18, d24, [x27,#-432]
    1718:	656c6261 	.inst	0x656c6261 ; undefined
    171c:	5a5f0045 	.inst	0x5a5f0045 ; undefined
    1720:	61374b4e 	.inst	0x61374b4e ; undefined
    1724:	6f72646e 	sqshlu	v14.2d, v3.2d, #50
    1728:	50366469 	adr	x9, 6e3b6 <_end@@Base+0x6637e>
    172c:	65637261 	.inst	0x65637261 ; undefined
    1730:	7234326c 	ands	w12, w19, #0x1fff000
    1734:	55646165 	.inst	0x55646165 ; undefined
    1738:	7571696e 	.inst	0x7571696e ; undefined
    173c:	6c694665 	ldnp	d5, d17, [x19,#-368]
    1740:	73654465 	.inst	0x73654465 ; undefined
    1744:	70697263 	adr	x3, d4593 <_end@@Base+0xcc55b>
    1748:	45726f74 	.inst	0x45726f74 ; undefined
    174c:	5f534e50 	.inst	0x5f534e50 ; undefined
    1750:	73616234 	.inst	0x73616234 ; undefined
    1754:	75343165 	.inst	0x75343165 ; undefined
    1758:	7571696e 	.inst	0x7571696e ; undefined
    175c:	64665f65 	.inst	0x64665f65 ; undefined
    1760:	706d695f 	adr	xzr, dc48b <_end@@Base+0xd4453>
    1764:	534e496c 	.inst	0x534e496c ; undefined
    1768:	33315f31 	.inst	0x33315f31 ; undefined
    176c:	61666544 	.inst	0x61666544 ; undefined
    1770:	43746c75 	.inst	0x43746c75 ; undefined
    1774:	65736f6c 	.inst	0x65736f6c ; undefined
    1778:	45454572 	.inst	0x45454572 ; undefined
    177c:	4e5a5f00 	.inst	0x4e5a5f00 ; undefined
    1780:	6e61374b 	cmhi	v11.8h, v26.8h, v1.8h
    1784:	696f7264 	ldpsw	x4, x28, [x19,#-136]
    1788:	61503664 	.inst	0x61503664 ; undefined
    178c:	6c656372 	ldnp	d18, d24, [x27,#-432]
    1790:	61657239 	.inst	0x61657239 ; undefined
    1794:	746e4964 	.inst	0x746e4964 ; undefined
    1798:	50453233 	adr	x19, 8bdde <_end@@Base+0x83da6>
    179c:	5a5f0069 	.inst	0x5a5f0069 ; undefined
    17a0:	5f307654 	sqshl	s20, s18, #16
    17a4:	5f34326e 	.inst	0x5f34326e ; undefined
    17a8:	6e61374e 	cmhi	v14.8h, v26.8h, v1.8h
    17ac:	696f7264 	ldpsw	x4, x28, [x19,#-136]
    17b0:	49303164 	.inst	0x49303164 ; undefined
    17b4:	65746e49 	.inst	0x65746e49 ; undefined
    17b8:	63616672 	.inst	0x63616672 ; undefined
    17bc:	45304465 	.inst	0x45304465 ; undefined
    17c0:	5a5f0076 	.inst	0x5a5f0076 ; undefined
    17c4:	5f307654 	sqshl	s20, s18, #16
    17c8:	5f34326e 	.inst	0x5f34326e ; undefined
    17cc:	6e61374e 	cmhi	v14.8h, v26.8h, v1.8h
    17d0:	696f7264 	ldpsw	x4, x28, [x19,#-136]
    17d4:	49303164 	.inst	0x49303164 ; undefined
    17d8:	65746e49 	.inst	0x65746e49 ; undefined
    17dc:	63616672 	.inst	0x63616672 ; undefined
    17e0:	45314465 	.inst	0x45314465 ; undefined
    17e4:	5a5f0076 	.inst	0x5a5f0076 ; undefined
    17e8:	5f307654 	sqshl	s20, s18, #16
    17ec:	5f34326e 	.inst	0x5f34326e ; undefined
    17f0:	6e61374e 	cmhi	v14.8h, v26.8h, v1.8h
    17f4:	696f7264 	ldpsw	x4, x28, [x19,#-136]
    17f8:	70423964 	adr	x4, 85f27 <_end@@Base+0x7deef>
    17fc:	42666552 	.inst	0x42666552 ; undefined
    1800:	44657361 	.inst	0x44657361 ; undefined
    1804:	00764530 	.inst	0x00764530 ; undefined
    1808:	76545a5f 	.inst	0x76545a5f ; undefined
    180c:	326e5f30 	.inst	0x326e5f30 ; undefined
    1810:	374e5f34 	tbnz	w20, #9, ffffffffffffe3f4 <_end@@Base+0xffffffffffff63bc>
    1814:	72646e61 	.inst	0x72646e61 ; undefined
    1818:	3964696f 	ldrb	w15, [x11,#2330]
    181c:	65527042 	.inst	0x65527042 ; undefined
    1820:	73614266 	.inst	0x73614266 ; undefined
    1824:	45314465 	.inst	0x45314465 ; undefined
    1828:	5a5f0076 	.inst	0x5a5f0076 ; undefined
    182c:	5f307654 	sqshl	s20, s18, #16
    1830:	5f32336e 	.inst	0x5f32336e ; undefined
    1834:	6e61374e 	cmhi	v14.8h, v26.8h, v1.8h
    1838:	696f7264 	ldpsw	x4, x28, [x19,#-136]
    183c:	70423964 	adr	x4, 85f6b <_end@@Base+0x7df33>
    1840:	42666552 	.inst	0x42666552 ; undefined
    1844:	31657361 	adds	w1, w27, #0x95c, lsl #12
    1848:	466e6f30 	.inst	0x466e6f30 ; undefined
    184c:	74737269 	.inst	0x74737269 ; undefined
    1850:	45666552 	.inst	0x45666552 ; undefined
    1854:	5a5f0076 	.inst	0x5a5f0076 ; undefined
    1858:	5f307654 	sqshl	s20, s18, #16
    185c:	5f30346e 	.inst	0x5f30346e ; undefined
    1860:	6e61374e 	cmhi	v14.8h, v26.8h, v1.8h
    1864:	696f7264 	ldpsw	x4, x28, [x19,#-136]
    1868:	70423964 	adr	x4, 85f97 <_end@@Base+0x7df5f>
    186c:	42666552 	.inst	0x42666552 ; undefined
    1870:	31657361 	adds	w1, w27, #0x95c, lsl #12
    1874:	4c6e6f35 	.inst	0x4c6e6f35 ; undefined
    1878:	53747361 	.inst	0x53747361 ; undefined
    187c:	6e6f7274 	uabdl2	v20.4s, v19.8h, v15.8h
    1880:	66655267 	.inst	0x66655267 ; undefined
    1884:	764b5045 	.inst	0x764b5045 ; undefined
    1888:	545a5f00 	b.eq	b6468 <_end@@Base+0xae430>
    188c:	6e5f3076 	.inst	0x6e5f3076 ; undefined
    1890:	4e5f3834 	zip1	v20.8h, v1.8h, v31.8h
    1894:	646e6137 	.inst	0x646e6137 ; undefined
    1898:	64696f72 	.inst	0x64696f72 ; undefined
    189c:	52704239 	.inst	0x52704239 ; undefined
    18a0:	61426665 	.inst	0x61426665 ; undefined
    18a4:	30326573 	adr	x19, 66551 <_end@@Base+0x5e519>
    18a8:	6e496e6f 	.inst	0x6e496e6f ; undefined
    18ac:	72745363 	.inst	0x72745363 ; undefined
    18b0:	41676e6f 	.inst	0x41676e6f ; undefined
    18b4:	6d657474 	ldp	d20, d29, [x3,#-432]
    18b8:	64657470 	.inst	0x64657470 ; undefined
    18bc:	4b506a45 	sub	w5, w18, w16, lsr #26
    18c0:	5f5f0076 	.inst	0x5f5f0076 ; undefined
    18c4:	5f617863 	sqdmlsl	s3, h3, v1.h[6]
    18c8:	65727570 	.inst	0x65727570 ; undefined
    18cc:	7269765f 	.inst	0x7269765f ; undefined
    18d0:	6c617574 	ldnp	d20, d29, [x11,#-496]
    18d4:	64655f00 	.inst	0x64655f00 ; undefined
    18d8:	00617461 	.inst	0x00617461 ; undefined
    18dc:	73625f5f 	.inst	0x73625f5f ; undefined
    18e0:	74735f73 	.inst	0x74735f73 ; undefined
    18e4:	00747261 	.inst	0x00747261 ; undefined
    18e8:	646e655f 	.inst	0x646e655f ; undefined
	...

Disassembly of section .rela.dyn:

00000000000018f0 <.rela.dyn>:
    18f0:	32535041 	.inst	0x32535041 ; undefined
    18f4:	083f003f 	.inst	0x083f003f ; undefined
    18f8:	8101e1f8 	.inst	0x8101e1f8 ; undefined
    18fc:	e0808082 	.inst	0xe0808082 ; undefined
    1900:	81080007 	.inst	0x81080007 ; undefined
    1904:	f0808082 	adrp	x2, ffffffff01014000 <_end@@Base+0xffffffff0100bfc8>
    1908:	81080007 	.inst	0x81080007 ; undefined
    190c:	80808082 	.inst	0x80808082 ; undefined
    1910:	00d00008 	.inst	0x00d00008 ; undefined
    1914:	80808281 	.inst	0x80808281 ; undefined
    1918:	080009c0 	stxrb	w0, w0, [x14]
    191c:	80808281 	.inst	0x80808281 ; undefined
    1920:	080009d0 	stxrb	w0, w16, [x14]
    1924:	80808281 	.inst	0x80808281 ; undefined
    1928:	080009e0 	stxrb	w0, w0, [x15]
    192c:	80808281 	.inst	0x80808281 ; undefined
    1930:	a00006e0 	.inst	0xa00006e0 ; undefined
    1934:	80828101 	.inst	0x80828101 ; undefined
    1938:	0009f080 	.inst	0x0009f080 ; undefined
    193c:	80828108 	.inst	0x80828108 ; undefined
    1940:	0009f080 	.inst	0x0009f080 ; undefined
    1944:	80828108 	.inst	0x80828108 ; undefined
    1948:	0009f080 	.inst	0x0009f080 ; undefined
    194c:	80828108 	.inst	0x80828108 ; undefined
    1950:	0009f080 	.inst	0x0009f080 ; undefined
    1954:	80828108 	.inst	0x80828108 ; undefined
    1958:	0009f080 	.inst	0x0009f080 ; undefined
    195c:	80828108 	.inst	0x80828108 ; undefined
    1960:	0009f080 	.inst	0x0009f080 ; undefined
    1964:	80828108 	.inst	0x80828108 ; undefined
    1968:	0009f080 	.inst	0x0009f080 ; undefined
    196c:	80828130 	.inst	0x80828130 ; undefined
    1970:	0007e080 	.inst	0x0007e080 ; undefined
    1974:	80828108 	.inst	0x80828108 ; undefined
    1978:	0007f080 	.inst	0x0007f080 ; undefined
    197c:	80828108 	.inst	0x80828108 ; undefined
    1980:	00088080 	.inst	0x00088080 ; undefined
    1984:	828100d0 	.inst	0x828100d0 ; undefined
    1988:	09c08080 	.inst	0x09c08080 ; undefined
    198c:	82810800 	.inst	0x82810800 ; undefined
    1990:	09d08080 	.inst	0x09d08080 ; undefined
    1994:	82810800 	.inst	0x82810800 ; undefined
    1998:	09e08080 	.inst	0x09e08080 ; undefined
    199c:	82810800 	.inst	0x82810800 ; undefined
    19a0:	06e08080 	.inst	0x06e08080 ; undefined
    19a4:	82813000 	.inst	0x82813000 ; undefined
    19a8:	09f08080 	.inst	0x09f08080 ; undefined
    19ac:	82811000 	.inst	0x82811000 ; undefined
    19b0:	09f08080 	.inst	0x09f08080 ; undefined
    19b4:	82810800 	.inst	0x82810800 ; undefined
    19b8:	09f08080 	.inst	0x09f08080 ; undefined
    19bc:	82810800 	.inst	0x82810800 ; undefined
    19c0:	09f08080 	.inst	0x09f08080 ; undefined
    19c4:	82810800 	.inst	0x82810800 ; undefined
    19c8:	09f08080 	.inst	0x09f08080 ; undefined
    19cc:	82810800 	.inst	0x82810800 ; undefined
    19d0:	09f08080 	.inst	0x09f08080 ; undefined
    19d4:	82810800 	.inst	0x82810800 ; undefined
    19d8:	09f08080 	.inst	0x09f08080 ; undefined
    19dc:	82810800 	.inst	0x82810800 ; undefined
    19e0:	09f08080 	.inst	0x09f08080 ; undefined
    19e4:	8100d000 	.inst	0x8100d000 ; undefined
    19e8:	d0808082 	adrp	x2, ffffffff01013000 <_end@@Base+0xffffffff0100afc8>
    19ec:	81080006 	.inst	0x81080006 ; undefined
    19f0:	f0808082 	adrp	x2, ffffffff01014000 <_end@@Base+0xffffffff0100bfc8>
    19f4:	81080006 	.inst	0x81080006 ; undefined
    19f8:	80808082 	.inst	0x80808082 ; undefined
    19fc:	81080007 	.inst	0x81080007 ; undefined
    1a00:	e0808082 	.inst	0xe0808082 ; undefined
    1a04:	81200006 	.inst	0x81200006 ; undefined
    1a08:	a0808082 	.inst	0xa0808082 ; undefined
    1a0c:	81080005 	.inst	0x81080005 ; undefined
    1a10:	90808082 	adrp	x2, ffffffff01011000 <_end@@Base+0xffffffff01008fc8>
    1a14:	81080005 	.inst	0x81080005 ; undefined
    1a18:	f0808082 	adrp	x2, ffffffff01014000 <_end@@Base+0xffffffff0100bfc8>
    1a1c:	00c00009 	.inst	0x00c00009 ; undefined
    1a20:	80808281 	.inst	0x80808281 ; undefined
    1a24:	08000990 	stxrb	w0, w16, [x12]
    1a28:	80808281 	.inst	0x80808281 ; undefined
    1a2c:	08000980 	stxrb	w0, w0, [x12]
    1a30:	80808281 	.inst	0x80808281 ; undefined
    1a34:	080006d0 	stxrb	w0, w16, [x22]
    1a38:	80808281 	.inst	0x80808281 ; undefined
    1a3c:	080006f0 	stxrb	w0, w16, [x23]
    1a40:	80808281 	.inst	0x80808281 ; undefined
    1a44:	08000780 	stxrb	w0, w0, [x28]
    1a48:	80808281 	.inst	0x80808281 ; undefined
    1a4c:	200006e0 	.inst	0x200006e0 ; undefined
    1a50:	80808281 	.inst	0x80808281 ; undefined
    1a54:	080008b0 	stxrb	w0, w16, [x5]
    1a58:	80808281 	.inst	0x80808281 ; undefined
    1a5c:	080008a0 	stxrb	w0, w0, [x5]
    1a60:	80808281 	.inst	0x80808281 ; undefined
    1a64:	080007e0 	stxrb	w0, w0, [sp]
    1a68:	80808281 	.inst	0x80808281 ; undefined
    1a6c:	080007f0 	stxrb	w0, w16, [sp]
    1a70:	80808281 	.inst	0x80808281 ; undefined
    1a74:	c0000880 	.inst	0xc0000880 ; undefined
    1a78:	80828100 	.inst	0x80828100 ; undefined
    1a7c:	0009b080 	.inst	0x0009b080 ; undefined
    1a80:	80828108 	.inst	0x80828108 ; undefined
    1a84:	0009a080 	.inst	0x0009a080 ; undefined
    1a88:	80828108 	.inst	0x80828108 ; undefined
    1a8c:	0009c080 	.inst	0x0009c080 ; undefined
    1a90:	80828108 	.inst	0x80828108 ; undefined
    1a94:	0009d080 	.inst	0x0009d080 ; undefined
    1a98:	80828108 	.inst	0x80828108 ; undefined
    1a9c:	0009e080 	.inst	0x0009e080 ; undefined
    1aa0:	80828108 	.inst	0x80828108 ; undefined
    1aa4:	0006e080 	.inst	0x0006e080 ; undefined
    1aa8:	888104d8 	stllr	w24, [x6]
    1aac:	01a08080 	.inst	0x01a08080 ; undefined
    1ab0:	88810800 	stllr	w0, [x0]
    1ab4:	01b08080 	.inst	0x01b08080 ; undefined
    1ab8:	88810800 	stllr	w0, [x0]
    1abc:	01908080 	.inst	0x01908080 ; undefined
    1ac0:	88810800 	stllr	w0, [x0]
    1ac4:	01808080 	.inst	0x01808080 ; undefined
    1ac8:	88810800 	stllr	w0, [x0]
    1acc:	02f08080 	.inst	0x02f08080 ; undefined
    1ad0:	88810800 	stllr	w0, [x0]
    1ad4:	02e08080 	.inst	0x02e08080 ; undefined
    1ad8:	88810800 	stllr	w0, [x0]
    1adc:	04a08080 	.inst	0x04a08080 ; undefined
    1ae0:	88810800 	stllr	w0, [x0]
    1ae4:	04c08080 	.inst	0x04c08080 ; undefined
    1ae8:	88810800 	stllr	w0, [x0]
    1aec:	02d08080 	.inst	0x02d08080 ; undefined
    1af0:	88810800 	stllr	w0, [x0]
    1af4:	02808080 	.inst	0x02808080 ; undefined
	...

Disassembly of section .relr.dyn:

0000000000001b00 <.relr.dyn>:
    1b00:	00006000 	.inst	0x00006000 ; undefined
    1b04:	00000000 	.inst	0x00000000 ; undefined
    1b08:	00007000 	.inst	0x00007000 ; undefined
    1b0c:	00000000 	.inst	0x00000000 ; undefined
    1b10:	63ff8ff3 	.inst	0x63ff8ff3 ; undefined
    1b14:	c7ff8600 	.inst	0xc7ff8600 ; undefined
    1b18:	06006007 	.inst	0x06006007 ; undefined
    1b1c:	0030002c 	.inst	0x0030002c ; NYI
    1b20:	00000001 	.inst	0x00000001 ; undefined
    1b24:	00000018 	.inst	0x00000018 ; undefined

Disassembly of section .rela.plt:

0000000000001b28 <.rela.plt>:
    1b28:	000077c0 	.inst	0x000077c0 ; undefined
    1b2c:	00000000 	.inst	0x00000000 ; undefined
    1b30:	00000402 	.inst	0x00000402 ; undefined
    1b34:	00000001 	.inst	0x00000001 ; undefined
	...
    1b40:	000077c8 	.inst	0x000077c8 ; undefined
    1b44:	00000000 	.inst	0x00000000 ; undefined
    1b48:	00000402 	.inst	0x00000402 ; undefined
    1b4c:	00000013 	.inst	0x00000013 ; undefined
	...
    1b58:	000077d0 	.inst	0x000077d0 ; undefined
    1b5c:	00000000 	.inst	0x00000000 ; undefined
    1b60:	00000402 	.inst	0x00000402 ; undefined
    1b64:	00000014 	.inst	0x00000014 ; undefined
	...
    1b70:	000077d8 	.inst	0x000077d8 ; undefined
    1b74:	00000000 	.inst	0x00000000 ; undefined
    1b78:	00000402 	.inst	0x00000402 ; undefined
    1b7c:	0000001b 	.inst	0x0000001b ; undefined
	...
    1b88:	000077e0 	.inst	0x000077e0 ; undefined
    1b8c:	00000000 	.inst	0x00000000 ; undefined
    1b90:	00000402 	.inst	0x00000402 ; undefined
    1b94:	00000007 	.inst	0x00000007 ; undefined
	...
    1ba0:	000077e8 	.inst	0x000077e8 ; undefined
    1ba4:	00000000 	.inst	0x00000000 ; undefined
    1ba8:	00000402 	.inst	0x00000402 ; undefined
    1bac:	00000019 	.inst	0x00000019 ; undefined
	...
    1bb8:	000077f0 	.inst	0x000077f0 ; undefined
    1bbc:	00000000 	.inst	0x00000000 ; undefined
    1bc0:	00000402 	.inst	0x00000402 ; undefined
    1bc4:	00000012 	.inst	0x00000012 ; undefined
	...
    1bd0:	000077f8 	.inst	0x000077f8 ; undefined
    1bd4:	00000000 	.inst	0x00000000 ; undefined
    1bd8:	00000402 	.inst	0x00000402 ; undefined
    1bdc:	00000011 	.inst	0x00000011 ; undefined
	...
    1be8:	00007800 	.inst	0x00007800 ; undefined
    1bec:	00000000 	.inst	0x00000000 ; undefined
    1bf0:	00000402 	.inst	0x00000402 ; undefined
    1bf4:	00000006 	.inst	0x00000006 ; undefined
	...
    1c00:	00007808 	.inst	0x00007808 ; undefined
    1c04:	00000000 	.inst	0x00000000 ; undefined
    1c08:	00000402 	.inst	0x00000402 ; undefined
    1c0c:	00000004 	.inst	0x00000004 ; undefined
	...
    1c18:	00007810 	.inst	0x00007810 ; undefined
    1c1c:	00000000 	.inst	0x00000000 ; undefined
    1c20:	00000402 	.inst	0x00000402 ; undefined
    1c24:	0000000d 	.inst	0x0000000d ; undefined
	...
    1c30:	00007818 	.inst	0x00007818 ; undefined
    1c34:	00000000 	.inst	0x00000000 ; undefined
    1c38:	00000402 	.inst	0x00000402 ; undefined
    1c3c:	00000003 	.inst	0x00000003 ; undefined
	...
    1c48:	00007820 	.inst	0x00007820 ; undefined
    1c4c:	00000000 	.inst	0x00000000 ; undefined
    1c50:	00000402 	.inst	0x00000402 ; undefined
    1c54:	00000005 	.inst	0x00000005 ; undefined
	...
    1c60:	00007828 	.inst	0x00007828 ; undefined
    1c64:	00000000 	.inst	0x00000000 ; undefined
    1c68:	00000402 	.inst	0x00000402 ; undefined
    1c6c:	00000020 	.inst	0x00000020 ; undefined
	...
    1c78:	00007830 	.inst	0x00007830 ; undefined
    1c7c:	00000000 	.inst	0x00000000 ; undefined
    1c80:	00000402 	.inst	0x00000402 ; undefined
    1c84:	00000018 	.inst	0x00000018 ; undefined
	...
    1c90:	00007838 	.inst	0x00007838 ; undefined
    1c94:	00000000 	.inst	0x00000000 ; undefined
    1c98:	00000402 	.inst	0x00000402 ; undefined
    1c9c:	0000001a 	.inst	0x0000001a ; undefined
	...
    1ca8:	00007840 	.inst	0x00007840 ; undefined
    1cac:	00000000 	.inst	0x00000000 ; undefined
    1cb0:	00000402 	.inst	0x00000402 ; undefined
    1cb4:	0000000c 	.inst	0x0000000c ; undefined
	...
    1cc0:	00007848 	.inst	0x00007848 ; undefined
    1cc4:	00000000 	.inst	0x00000000 ; undefined
    1cc8:	00000402 	.inst	0x00000402 ; undefined
    1ccc:	0000001c 	.inst	0x0000001c ; undefined
	...
    1cd8:	00007850 	.inst	0x00007850 ; undefined
    1cdc:	00000000 	.inst	0x00000000 ; undefined
    1ce0:	00000402 	.inst	0x00000402 ; undefined
    1ce4:	00000023 	.inst	0x00000023 ; undefined
	...
    1cf0:	00007858 	.inst	0x00007858 ; undefined
    1cf4:	00000000 	.inst	0x00000000 ; undefined
    1cf8:	00000402 	.inst	0x00000402 ; undefined
    1cfc:	00000022 	.inst	0x00000022 ; undefined
	...
    1d08:	00007860 	.inst	0x00007860 ; undefined
    1d0c:	00000000 	.inst	0x00000000 ; undefined
    1d10:	00000402 	.inst	0x00000402 ; undefined
    1d14:	00000025 	.inst	0x00000025 ; undefined
	...
    1d20:	00007868 	.inst	0x00007868 ; undefined
    1d24:	00000000 	.inst	0x00000000 ; undefined
    1d28:	00000402 	.inst	0x00000402 ; undefined
    1d2c:	0000001e 	.inst	0x0000001e ; undefined
	...
    1d38:	00007870 	.inst	0x00007870 ; undefined
    1d3c:	00000000 	.inst	0x00000000 ; undefined
    1d40:	00000402 	.inst	0x00000402 ; undefined
    1d44:	0000001f 	.inst	0x0000001f ; undefined
	...
    1d50:	00007878 	.inst	0x00007878 ; undefined
    1d54:	00000000 	.inst	0x00000000 ; undefined
    1d58:	00000402 	.inst	0x00000402 ; undefined
    1d5c:	00000026 	.inst	0x00000026 ; undefined
	...
    1d68:	00007880 	.inst	0x00007880 ; undefined
    1d6c:	00000000 	.inst	0x00000000 ; undefined
    1d70:	00000402 	.inst	0x00000402 ; undefined
    1d74:	0000005d 	.inst	0x0000005d ; undefined
	...
    1d80:	00007888 	.inst	0x00007888 ; undefined
    1d84:	00000000 	.inst	0x00000000 ; undefined
    1d88:	00000402 	.inst	0x00000402 ; undefined
    1d8c:	0000001d 	.inst	0x0000001d ; undefined
	...
    1d98:	00007890 	.inst	0x00007890 ; undefined
    1d9c:	00000000 	.inst	0x00000000 ; undefined
    1da0:	00000402 	.inst	0x00000402 ; undefined
    1da4:	00000021 	.inst	0x00000021 ; undefined
	...
    1db0:	00007898 	.inst	0x00007898 ; undefined
    1db4:	00000000 	.inst	0x00000000 ; undefined
    1db8:	00000402 	.inst	0x00000402 ; undefined
    1dbc:	0000000f 	.inst	0x0000000f ; undefined
	...
    1dc8:	000078a0 	.inst	0x000078a0 ; undefined
    1dcc:	00000000 	.inst	0x00000000 ; undefined
    1dd0:	00000402 	.inst	0x00000402 ; undefined
    1dd4:	00000010 	.inst	0x00000010 ; undefined
	...
    1de0:	000078a8 	.inst	0x000078a8 ; undefined
    1de4:	00000000 	.inst	0x00000000 ; undefined
    1de8:	00000402 	.inst	0x00000402 ; undefined
    1dec:	0000000e 	.inst	0x0000000e ; undefined
	...
    1df8:	000078b0 	.inst	0x000078b0 ; undefined
    1dfc:	00000000 	.inst	0x00000000 ; undefined
    1e00:	00000402 	.inst	0x00000402 ; undefined
    1e04:	00000027 	.inst	0x00000027 ; undefined
	...
    1e10:	000078b8 	.inst	0x000078b8 ; undefined
    1e14:	00000000 	.inst	0x00000000 ; undefined
    1e18:	00000402 	.inst	0x00000402 ; undefined
    1e1c:	00000024 	.inst	0x00000024 ; undefined
	...
    1e28:	000078c0 	.inst	0x000078c0 ; undefined
    1e2c:	00000000 	.inst	0x00000000 ; undefined
    1e30:	00000402 	.inst	0x00000402 ; undefined
    1e34:	00000002 	.inst	0x00000002 ; undefined
	...
    1e40:	000078c8 	.inst	0x000078c8 ; undefined
    1e44:	00000000 	.inst	0x00000000 ; undefined
    1e48:	00000402 	.inst	0x00000402 ; undefined
    1e4c:	00000039 	.inst	0x00000039 ; undefined
	...
    1e58:	000078d0 	.inst	0x000078d0 ; undefined
    1e5c:	00000000 	.inst	0x00000000 ; undefined
    1e60:	00000402 	.inst	0x00000402 ; undefined
    1e64:	00000028 	.inst	0x00000028 ; undefined
	...
    1e70:	000078d8 	.inst	0x000078d8 ; undefined
    1e74:	00000000 	.inst	0x00000000 ; undefined
    1e78:	00000402 	.inst	0x00000402 ; undefined
    1e7c:	00000041 	.inst	0x00000041 ; undefined
	...
    1e88:	000078e0 	.inst	0x000078e0 ; undefined
    1e8c:	00000000 	.inst	0x00000000 ; undefined
    1e90:	00000402 	.inst	0x00000402 ; undefined
    1e94:	00000031 	.inst	0x00000031 ; undefined
	...
    1ea0:	000078e8 	.inst	0x000078e8 ; undefined
    1ea4:	00000000 	.inst	0x00000000 ; undefined
    1ea8:	00000402 	.inst	0x00000402 ; undefined
    1eac:	0000003c 	.inst	0x0000003c ; undefined
	...
    1eb8:	000078f0 	.inst	0x000078f0 ; undefined
    1ebc:	00000000 	.inst	0x00000000 ; undefined
    1ec0:	00000402 	.inst	0x00000402 ; undefined
    1ec4:	0000002f 	.inst	0x0000002f ; undefined
	...
    1ed0:	000078f8 	.inst	0x000078f8 ; undefined
    1ed4:	00000000 	.inst	0x00000000 ; undefined
    1ed8:	00000402 	.inst	0x00000402 ; undefined
    1edc:	0000002e 	.inst	0x0000002e ; undefined
	...
    1ee8:	00007900 	.inst	0x00007900 ; undefined
    1eec:	00000000 	.inst	0x00000000 ; undefined
    1ef0:	00000402 	.inst	0x00000402 ; undefined
    1ef4:	0000002c 	.inst	0x0000002c ; undefined
	...
    1f00:	00007908 	.inst	0x00007908 ; undefined
    1f04:	00000000 	.inst	0x00000000 ; undefined
    1f08:	00000402 	.inst	0x00000402 ; undefined
    1f0c:	00000034 	.inst	0x00000034 ; undefined
	...
    1f18:	00007910 	.inst	0x00007910 ; undefined
    1f1c:	00000000 	.inst	0x00000000 ; undefined
    1f20:	00000402 	.inst	0x00000402 ; undefined
    1f24:	0000003b 	.inst	0x0000003b ; undefined
	...
    1f30:	00007918 	.inst	0x00007918 ; undefined
    1f34:	00000000 	.inst	0x00000000 ; undefined
    1f38:	00000402 	.inst	0x00000402 ; undefined
    1f3c:	00000032 	.inst	0x00000032 ; undefined
	...
    1f48:	00007920 	.inst	0x00007920 ; undefined
    1f4c:	00000000 	.inst	0x00000000 ; undefined
    1f50:	00000402 	.inst	0x00000402 ; undefined
    1f54:	00000033 	.inst	0x00000033 ; undefined
	...
    1f60:	00007928 	.inst	0x00007928 ; undefined
    1f64:	00000000 	.inst	0x00000000 ; undefined
    1f68:	00000402 	.inst	0x00000402 ; undefined
    1f6c:	00000046 	.inst	0x00000046 ; undefined
	...
    1f78:	00007930 	.inst	0x00007930 ; undefined
    1f7c:	00000000 	.inst	0x00000000 ; undefined
    1f80:	00000402 	.inst	0x00000402 ; undefined
    1f84:	00000030 	.inst	0x00000030 ; undefined
	...
    1f90:	00007938 	.inst	0x00007938 ; undefined
    1f94:	00000000 	.inst	0x00000000 ; undefined
    1f98:	00000402 	.inst	0x00000402 ; undefined
    1f9c:	00000047 	.inst	0x00000047 ; undefined
	...
    1fa8:	00007940 	.inst	0x00007940 ; undefined
    1fac:	00000000 	.inst	0x00000000 ; undefined
    1fb0:	00000402 	.inst	0x00000402 ; undefined
    1fb4:	00000045 	.inst	0x00000045 ; undefined
	...
    1fc0:	00007948 	.inst	0x00007948 ; undefined
    1fc4:	00000000 	.inst	0x00000000 ; undefined
    1fc8:	00000402 	.inst	0x00000402 ; undefined
    1fcc:	0000002d 	.inst	0x0000002d ; undefined
	...
    1fd8:	00007950 	.inst	0x00007950 ; undefined
    1fdc:	00000000 	.inst	0x00000000 ; undefined
    1fe0:	00000402 	.inst	0x00000402 ; undefined
    1fe4:	00000044 	.inst	0x00000044 ; undefined
	...
    1ff0:	00007958 	.inst	0x00007958 ; undefined
    1ff4:	00000000 	.inst	0x00000000 ; undefined
    1ff8:	00000402 	.inst	0x00000402 ; undefined
    1ffc:	0000002b 	.inst	0x0000002b ; undefined
	...
    2008:	00007960 	.inst	0x00007960 ; undefined
    200c:	00000000 	.inst	0x00000000 ; undefined
    2010:	00000402 	.inst	0x00000402 ; undefined
    2014:	0000003a 	.inst	0x0000003a ; undefined
	...
    2020:	00007968 	.inst	0x00007968 ; undefined
    2024:	00000000 	.inst	0x00000000 ; undefined
    2028:	00000402 	.inst	0x00000402 ; undefined
    202c:	0000003d 	.inst	0x0000003d ; undefined
	...

Disassembly of section .rodata:

0000000000002038 <.rodata>:
    2038:	64694d41 	.inst	0x64694d41 ; undefined
    203c:	76654469 	.inst	0x76654469 ; undefined
    2040:	5f656369 	.inst	0x5f656369 ; undefined
    2044:	6d6f7266 	ldp	d6, d28, [x19,#-272]
    2048:	6176614a 	.inst	0x6176614a ; undefined
    204c:	756f6320 	.inst	0x756f6320 ; undefined
    2050:	276e646c 	.inst	0x276e646c ; undefined
    2054:	65722074 	.inst	0x65722074 ; undefined
    2058:	65697274 	.inst	0x65697274 ; undefined
    205c:	61206576 	.inst	0x61206576 ; undefined
    2060:	69727474 	ldpsw	x20, x29, [x3,#-112]
    2064:	65747562 	.inst	0x65747562 ; undefined
    2068:	666f2073 	.inst	0x666f2073 ; undefined
    206c:	74616e20 	.inst	0x74616e20 ; undefined
    2070:	20657669 	.inst	0x20657669 ; undefined
    2074:	69766564 	ldpsw	x4, x25, [x11,#-80]
    2078:	002e6563 	.inst	0x002e6563 ; NYI
    207c:	44494d41 	.inst	0x44494d41 ; undefined
    2080:	65675f49 	.inst	0x65675f49 ; undefined
    2084:	76654474 	.inst	0x76654474 ; undefined
    2088:	49656369 	.inst	0x49656369 ; undefined
    208c:	206f666e 	.inst	0x206f666e ; undefined
    2090:	6e617274 	uabdl2	v20.4s, v19.8h, v1.8h
    2094:	74636173 	.inst	0x74636173 ; undefined
    2098:	206e6f69 	.inst	0x206e6f69 ; undefined
    209c:	6f727265 	.inst	0x6f727265 ; undefined
    20a0:	25203a72 	.inst	0x25203a72 ; undefined
    20a4:	72650064 	.inst	0x72650064 ; undefined
    20a8:	3d212072 	str	b18, [x3,#2120]
    20ac:	494e4a20 	.inst	0x494e4a20 ; undefined
    20b0:	004b4f5f 	.inst	0x004b4f5f ; undefined
    20b4:	6974614e 	ldpsw	x14, x24, [x10,#-96]
    20b8:	494d6576 	.inst	0x494d6576 ; undefined
    20bc:	41004944 	.inst	0x41004944 ; undefined
    20c0:	6964694d 	ldpsw	x13, x26, [x10,#-224]
    20c4:	69766544 	ldpsw	x4, x25, [x10,#-80]
    20c8:	665f6563 	.inst	0x665f6563 ; undefined
    20cc:	4a6d6f72 	eon	w18, w27, w13, lsr #27
    20d0:	28617661 	ldnp	w1, w29, [x19,#-248]
    20d4:	6e692029 	usubl2	v9.4s, v1.8h, v9.8h
    20d8:	696c6176 	ldpsw	x22, x24, [x11,#-160]
    20dc:	694d2064 	ldpsw	x4, x8, [x3,#104]
    20e0:	65446964 	.inst	0x65446964 ; undefined
    20e4:	65636976 	.inst	0x65636976 ; undefined
    20e8:	6a626f20 	bics	w0, w25, w2, lsr #27
    20ec:	2e746365 	rsubhn	v5.4h, v27.4s, v20.4s
    20f0:	694d4100 	ldpsw	x0, x16, [x8,#104]
    20f4:	65446964 	.inst	0x65446964 ; undefined
    20f8:	65636976 	.inst	0x65636976 ; undefined
    20fc:	6c65725f 	ldnp	d31, d28, [x18,#-432]
    2100:	65736165 	.inst	0x65736165 ; undefined
    2104:	64202928 	.inst	0x64202928 ; undefined
    2108:	63697665 	.inst	0x63697665 ; undefined
    210c:	6f6e2065 	umlal2	v5.4s, v3.8h, v14.h[2]
    2110:	706f2074 	adr	x20, e051f <_end@@Base+0xd84e7>
    2114:	64656e65 	.inst	0x64656e65 ; undefined
    2118:	206e6920 	.inst	0x206e6920 ; undefined
    211c:	6974616e 	ldpsw	x14, x24, [x11,#-96]
    2120:	63206576 	.inst	0x63206576 ; undefined
    2124:	6e65696c 	.inst	0x6e65696c ; undefined
    2128:	41002e74 	.inst	0x41002e74 ; undefined
    212c:	6964694d 	ldpsw	x13, x26, [x10,#-224]
    2130:	69766544 	ldpsw	x4, x25, [x10,#-80]
    2134:	725f6563 	.inst	0x725f6563 ; undefined
    2138:	61656c65 	.inst	0x61656c65 ; undefined
    213c:	45206573 	.inst	0x45206573 ; undefined
    2140:	726f7272 	.inst	0x726f7272 ; undefined
    2144:	63636120 	.inst	0x63636120 ; undefined
    2148:	69737365 	ldpsw	x5, x28, [x27,#-104]
    214c:	4a20676e 	eon	w14, w27, w0, lsl #25
    2150:	6e45494e 	.inst	0x6e45494e ; undefined
    2154:	72652076 	.inst	0x72652076 ; undefined
    2158:	64253a72 	.inst	0x64253a72 ; undefined
    215c:	694d4100 	ldpsw	x0, x16, [x8,#104]
    2160:	6e496964 	.inst	0x6e496964 ; undefined
    2164:	50747570 	adr	x16, eb012 <_end@@Base+0xe2fda>
    2168:	5f74726f 	sqdmlsl	s15, h19, v4.h[3]
    216c:	73756c66 	.inst	0x73756c66 ; undefined
    2170:	6f432068 	umlal2	v8.4s, v3.8h, v3.h[0]
    2174:	6e646c75 	umin	v21.8h, v3.8h, v4.8h
    2178:	77207427 	.inst	0x77207427 ; undefined
    217c:	65746972 	.inst	0x65746972 ; undefined
    2180:	44494d20 	.inst	0x44494d20 ; undefined
    2184:	6c662049 	ldnp	d9, d8, [x2,#-416]
    2188:	2e687375 	uabdl	v21.4s, v27.4h, v8.4h
    218c:	71657220 	subs	w0, w17, #0x95c, lsl #12
    2190:	74736575 	.inst	0x74736575 ; undefined
    2194:	253a6465 	.inst	0x253a6465 ; undefined
    2198:	202c647a 	.inst	0x202c647a ; undefined
    219c:	74697277 	.inst	0x74697277 ; undefined
    21a0:	3a6e6574 	.inst	0x3a6e6574 ; undefined
    21a4:	00647a25 	.inst	0x00647a25 ; undefined
    21a8:	64694d41 	.inst	0x64694d41 ; undefined
    21ac:	76654469 	.inst	0x76654469 ; undefined
    21b0:	5f656369 	.inst	0x5f656369 ; undefined
    21b4:	6d6f7266 	ldp	d6, d28, [x19,#-272]
    21b8:	6176614a 	.inst	0x6176614a ; undefined
    21bc:	756f6320 	.inst	0x756f6320 ; undefined
    21c0:	276e646c 	.inst	0x276e646c ; undefined
    21c4:	6f632074 	umlal2	v20.4s, v3.8h, v3.h[2]
    21c8:	63656e6e 	.inst	0x63656e6e ; undefined
    21cc:	6f742074 	umlal2	v20.4s, v3.8h, v4.h[3]
    21d0:	74616e20 	.inst	0x74616e20 ; undefined
    21d4:	20657669 	.inst	0x20657669 ; undefined
    21d8:	4944494d 	.inst	0x4944494d ; undefined
    21dc:	72657320 	.inst	0x72657320 ; undefined
    21e0:	2e726576 	umax	v22.4h, v11.4h, v18.4h
    21e4:	61725400 	.inst	0x61725400 ; undefined
    21e8:	6361736e 	.inst	0x6361736e ; undefined
    21ec:	6e6f6974 	.inst	0x6e6f6974 ; undefined
    21f0:	72726520 	.inst	0x72726520 ; undefined
    21f4:	6320726f 	.inst	0x6320726f ; undefined
    21f8:	69736f6c 	ldpsw	x12, x27, [x27,#-104]
    21fc:	4d20676e 	.inst	0x4d20676e ; undefined
    2200:	20494449 	.inst	0x20494449 ; undefined
    2204:	74726f70 	.inst	0x74726f70 ; undefined
    2208:	0064253a 	.inst	0x0064253a ; undefined
    220c:	72646e61 	.inst	0x72646e61 ; undefined
    2210:	2e64696f 	.inst	0x2e64696f ; undefined
    2214:	6964656d 	ldpsw	x13, x25, [x11,#-224]
    2218:	696d2e61 	ldpsw	x1, x11, [x19,#-152]
    221c:	492e6964 	.inst	0x492e6964 ; undefined
    2220:	6964694d 	ldpsw	x13, x26, [x10,#-224]
    2224:	69766544 	ldpsw	x4, x25, [x10,#-80]
    2228:	65536563 	.inst	0x65536563 ; undefined
    222c:	72657672 	.inst	0x72657672 ; undefined
    2230:	694d4100 	ldpsw	x0, x16, [x8,#104]
    2234:	6e496964 	.inst	0x6e496964 ; undefined
    2238:	50747570 	adr	x16, eb0e6 <_end@@Base+0xe30ae>
    223c:	5f74726f 	sqdmlsl	s15, h19, v4.h[3]
    2240:	646e6573 	.inst	0x646e6573 ; undefined
    2244:	68746957 	.inst	0x68746957 ; undefined
    2248:	656d6954 	.inst	0x656d6954 ; undefined
    224c:	6d617473 	ldp	d19, d29, [x3,#-496]
    2250:	6f432070 	umlal2	v16.4s, v3.8h, v3.h[0]
    2254:	6e646c75 	umin	v21.8h, v3.8h, v4.8h
    2258:	77207427 	.inst	0x77207427 ; undefined
    225c:	65746972 	.inst	0x65746972 ; undefined
    2260:	44494d20 	.inst	0x44494d20 ; undefined
    2264:	61642049 	.inst	0x61642049 ; undefined
    2268:	62206174 	.inst	0x62206174 ; undefined
    226c:	65666675 	.inst	0x65666675 ; undefined
    2270:	72202e72 	ands	w18, w19, #0xfff
    2274:	65757165 	.inst	0x65757165 ; undefined
    2278:	64657473 	.inst	0x64657473 ; undefined
    227c:	757a253a 	.inst	0x757a253a ; undefined
    2280:	7277202c 	.inst	0x7277202c ; undefined
    2284:	65747469 	.inst	0x65747469 ; undefined
    2288:	757a256e 	.inst	0x757a256e ; undefined
    228c:	494d4100 	.inst	0x494d4100 ; undefined
    2290:	6f5f4944 	mls	v4.8h, v10.8h, v15.h[5]
    2294:	506e6570 	adr	x16, def42 <_end@@Base+0xd6f0a>
    2298:	2074726f 	.inst	0x2074726f ; undefined
    229c:	6e617274 	uabdl2	v20.4s, v19.8h, v1.8h
    22a0:	74636173 	.inst	0x74636173 ; undefined
    22a4:	206e6f69 	.inst	0x206e6f69 ; undefined
    22a8:	6f727265 	.inst	0x6f727265 ; undefined
    22ac:	25203a72 	.inst	0x25203a72 ; undefined
    22b0:	Address 0x00000000000022b0 is out of bounds.


Disassembly of section .eh_frame_hdr:

00000000000022b4 <.eh_frame_hdr>:
    22b4:	3b031b01 	.inst	0x3b031b01 ; undefined
    22b8:	000001b8 	.inst	0x000001b8 ; undefined
    22bc:	00000036 	.inst	0x00000036 ; undefined
    22c0:	00000d4c 	.inst	0x00000d4c ; undefined
    22c4:	000001d4 	.inst	0x000001d4 ; undefined
    22c8:	00000d5c 	.inst	0x00000d5c ; undefined
    22cc:	000001ec 	.inst	0x000001ec ; undefined
    22d0:	00000d64 	.inst	0x00000d64 ; undefined
    22d4:	00000204 	.inst	0x00000204 ; undefined
    22d8:	00000d6c 	.inst	0x00000d6c ; undefined
    22dc:	00000234 	.inst	0x00000234 ; undefined
    22e0:	00001174 	.inst	0x00001174 ; undefined
    22e4:	00000264 	.inst	0x00000264 ; undefined
    22e8:	000012d4 	.inst	0x000012d4 ; undefined
    22ec:	00000284 	.inst	0x00000284 ; undefined
    22f0:	000012ec 	.inst	0x000012ec ; undefined
    22f4:	0000029c 	.inst	0x0000029c ; undefined
    22f8:	00001304 	.inst	0x00001304 ; undefined
    22fc:	000002b4 	.inst	0x000002b4 ; undefined
    2300:	0000131c 	.inst	0x0000131c ; undefined
    2304:	000002cc 	.inst	0x000002cc ; undefined
    2308:	0000132c 	.inst	0x0000132c ; undefined
    230c:	000002e4 	.inst	0x000002e4 ; undefined
    2310:	000015a4 	.inst	0x000015a4 ; undefined
    2314:	00000314 	.inst	0x00000314 ; undefined
    2318:	0000160c 	.inst	0x0000160c ; undefined
    231c:	00000334 	.inst	0x00000334 ; undefined
    2320:	00001764 	.inst	0x00001764 ; undefined
    2324:	00000364 	.inst	0x00000364 ; undefined
    2328:	0000176c 	.inst	0x0000176c ; undefined
    232c:	0000037c 	.inst	0x0000037c ; undefined
    2330:	000018dc 	.inst	0x000018dc ; undefined
    2334:	000003a4 	.inst	0x000003a4 ; undefined
    2338:	000018ec 	.inst	0x000018ec ; undefined
    233c:	000003bc 	.inst	0x000003bc ; undefined
    2340:	000018f4 	.inst	0x000018f4 ; undefined
    2344:	000003d4 	.inst	0x000003d4 ; undefined
    2348:	000018fc 	.inst	0x000018fc ; undefined
    234c:	000003ec 	.inst	0x000003ec ; undefined
    2350:	00001a2c 	.inst	0x00001a2c ; undefined
    2354:	0000041c 	.inst	0x0000041c ; undefined
    2358:	00001acc 	.inst	0x00001acc ; undefined
    235c:	0000043c 	.inst	0x0000043c ; undefined
    2360:	00001afc 	.inst	0x00001afc ; undefined
    2364:	0000045c 	.inst	0x0000045c ; undefined
    2368:	00001b34 	.inst	0x00001b34 ; undefined
    236c:	0000047c 	.inst	0x0000047c ; undefined
    2370:	00001b6c 	.inst	0x00001b6c ; undefined
    2374:	0000049c 	.inst	0x0000049c ; undefined
    2378:	00001ba4 	.inst	0x00001ba4 ; undefined
    237c:	000004bc 	.inst	0x000004bc ; undefined
    2380:	00001bf4 	.inst	0x00001bf4 ; undefined
    2384:	000004dc 	.inst	0x000004dc ; undefined
    2388:	00001c3c 	.inst	0x00001c3c ; undefined
    238c:	000004fc 	.inst	0x000004fc ; undefined
    2390:	00001c64 	.inst	0x00001c64 ; undefined
    2394:	0000051c 	.inst	0x0000051c ; undefined
    2398:	00001d14 	.inst	0x00001d14 ; undefined
    239c:	0000053c 	.inst	0x0000053c ; undefined
    23a0:	00001d6c 	.inst	0x00001d6c ; undefined
    23a4:	0000055c 	.inst	0x0000055c ; undefined
    23a8:	00001dfc 	.inst	0x00001dfc ; undefined
    23ac:	0000057c 	.inst	0x0000057c ; undefined
    23b0:	00001e54 	.inst	0x00001e54 ; undefined
    23b4:	0000059c 	.inst	0x0000059c ; undefined
    23b8:	00001eac 	.inst	0x00001eac ; undefined
    23bc:	000005bc 	.inst	0x000005bc ; undefined
    23c0:	00001f04 	.inst	0x00001f04 ; undefined
    23c4:	000005dc 	.inst	0x000005dc ; undefined
    23c8:	00001f4c 	.inst	0x00001f4c ; undefined
    23cc:	000005fc 	.inst	0x000005fc ; undefined
    23d0:	00002014 	.inst	0x00002014 ; undefined
    23d4:	00000624 	.inst	0x00000624 ; undefined
    23d8:	00002034 	.inst	0x00002034 ; undefined
    23dc:	0000063c 	.inst	0x0000063c ; undefined
    23e0:	00002044 	.inst	0x00002044 ; undefined
    23e4:	00000654 	.inst	0x00000654 ; undefined
    23e8:	000020cc 	.inst	0x000020cc ; undefined
    23ec:	00000674 	.inst	0x00000674 ; undefined
    23f0:	000020ec 	.inst	0x000020ec ; undefined
    23f4:	0000068c 	.inst	0x0000068c ; undefined
    23f8:	000020f4 	.inst	0x000020f4 ; undefined
    23fc:	000006a4 	.inst	0x000006a4 ; undefined
    2400:	0000229c 	.inst	0x0000229c ; undefined
    2404:	000006d4 	.inst	0x000006d4 ; undefined
    2408:	00002444 	.inst	0x00002444 ; undefined
    240c:	00000704 	.inst	0x00000704 ; undefined
    2410:	000025b4 	.inst	0x000025b4 ; undefined
    2414:	0000072c 	.inst	0x0000072c ; undefined
    2418:	000026dc 	.inst	0x000026dc ; undefined
    241c:	00000754 	.inst	0x00000754 ; undefined
    2420:	000028a4 	.inst	0x000028a4 ; undefined
    2424:	00000784 	.inst	0x00000784 ; undefined
    2428:	00002a0c 	.inst	0x00002a0c ; undefined
    242c:	000007ac 	.inst	0x000007ac ; undefined
    2430:	00002b4c 	.inst	0x00002b4c ; undefined
    2434:	000007d4 	.inst	0x000007d4 ; undefined
    2438:	00002b54 	.inst	0x00002b54 ; undefined
    243c:	000007ec 	.inst	0x000007ec ; undefined
    2440:	00002b94 	.inst	0x00002b94 ; undefined
    2444:	0000080c 	.inst	0x0000080c ; undefined
    2448:	00002bdc 	.inst	0x00002bdc ; undefined
    244c:	0000082c 	.inst	0x0000082c ; undefined
    2450:	00002c24 	.inst	0x00002c24 ; undefined
    2454:	0000084c 	.inst	0x0000084c ; undefined
    2458:	00002c74 	.inst	0x00002c74 ; undefined
    245c:	0000086c 	.inst	0x0000086c ; undefined
    2460:	00002cbc 	.inst	0x00002cbc ; undefined
    2464:	0000088c 	.inst	0x0000088c ; undefined
    2468:	00002d0c 	.inst	0x00002d0c ; undefined
    246c:	000008ac 	.inst	0x000008ac ; undefined

Disassembly of section .eh_frame:

0000000000002470 <.eh_frame>:
    2470:	00000014 	.inst	0x00000014 ; undefined
    2474:	00000000 	.inst	0x00000000 ; undefined
    2478:	00527a01 	.inst	0x00527a01 ; undefined
    247c:	011e7c01 	.inst	0x011e7c01 ; undefined
    2480:	001f0c1b 	.inst	0x001f0c1b ; undefined
    2484:	00000000 	.inst	0x00000000 ; undefined
    2488:	00000014 	.inst	0x00000014 ; undefined
    248c:	0000001c 	.inst	0x0000001c ; undefined
    2490:	00000b70 	.inst	0x00000b70 ; undefined
    2494:	0000000c 	.inst	0x0000000c ; undefined
	...
    24a0:	00000014 	.inst	0x00000014 ; undefined
    24a4:	00000034 	.inst	0x00000034 ; undefined
    24a8:	00000b68 	.inst	0x00000b68 ; undefined
    24ac:	00000004 	.inst	0x00000004 ; undefined
	...
    24b8:	00000014 	.inst	0x00000014 ; undefined
    24bc:	0000004c 	.inst	0x0000004c ; undefined
    24c0:	00000b58 	.inst	0x00000b58 ; undefined
    24c4:	00000004 	.inst	0x00000004 ; undefined
	...
    24d0:	00000014 	.inst	0x00000014 ; undefined
    24d4:	00000000 	.inst	0x00000000 ; undefined
    24d8:	00527a01 	.inst	0x00527a01 ; undefined
    24dc:	011e7c01 	.inst	0x011e7c01 ; undefined
    24e0:	001f0c1b 	.inst	0x001f0c1b ; undefined
    24e4:	00000000 	.inst	0x00000000 ; undefined
    24e8:	0000002c 	.inst	0x0000002c ; undefined
    24ec:	0000001c 	.inst	0x0000001c ; undefined
    24f0:	00000b30 	.inst	0x00000b30 ; undefined
    24f4:	00000404 	.inst	0x00000404 ; undefined
    24f8:	1d0c6000 	.inst	0x1d0c6000 ; undefined
    24fc:	9d029e10 	.inst	0x9d029e10 ; undefined
    2500:	94069304 	bl	1a7110 <_end@@Base+0x19f0d8>
    2504:	960a9508 	bl	fffffffff82a7924 <_end@@Base+0xfffffffff829f8ec>
    2508:	980e970c 	ldrsw	x12, 1f7e8 <_end@@Base+0x177b0>
    250c:	9a129910 	.inst	0x9a129910 ; undefined
    2510:	00189c14 	.inst	0x00189c14 ; undefined
    2514:	00000000 	.inst	0x00000000 ; undefined
    2518:	0000001c 	.inst	0x0000001c ; undefined
    251c:	0000004c 	.inst	0x0000004c ; undefined
    2520:	00000f08 	.inst	0x00000f08 ; undefined
    2524:	00000160 	.inst	0x00000160 ; undefined
    2528:	1d0c5400 	.inst	0x1d0c5400 ; undefined
    252c:	9d029e10 	.inst	0x9d029e10 ; undefined
    2530:	94069304 	bl	1a7140 <_end@@Base+0x19f108>
    2534:	000c9508 	.inst	0x000c9508 ; undefined
    2538:	00000014 	.inst	0x00000014 ; undefined
    253c:	0000006c 	.inst	0x0000006c ; undefined
    2540:	00001048 	.inst	0x00001048 ; undefined
    2544:	00000014 	.inst	0x00000014 ; undefined
	...
    2550:	00000014 	.inst	0x00000014 ; undefined
    2554:	00000084 	.inst	0x00000084 ; undefined
    2558:	00001048 	.inst	0x00001048 ; undefined
    255c:	00000014 	.inst	0x00000014 ; undefined
	...
    2568:	00000014 	.inst	0x00000014 ; undefined
    256c:	0000009c 	.inst	0x0000009c ; undefined
    2570:	00001048 	.inst	0x00001048 ; undefined
    2574:	00000014 	.inst	0x00000014 ; undefined
	...
    2580:	00000014 	.inst	0x00000014 ; undefined
    2584:	000000b4 	.inst	0x000000b4 ; undefined
    2588:	00001048 	.inst	0x00001048 ; undefined
    258c:	0000000c 	.inst	0x0000000c ; undefined
	...
    2598:	0000002c 	.inst	0x0000002c ; undefined
    259c:	000000cc 	.inst	0x000000cc ; undefined
    25a0:	00001040 	.inst	0x00001040 ; undefined
    25a4:	00000278 	.inst	0x00000278 ; undefined
    25a8:	1d0c5c00 	.inst	0x1d0c5c00 ; undefined
    25ac:	9d029e10 	.inst	0x9d029e10 ; undefined
    25b0:	94069304 	bl	1a71c0 <_end@@Base+0x19f188>
    25b4:	960a9508 	bl	fffffffff82a79d4 <_end@@Base+0xfffffffff829f99c>
    25b8:	980e970c 	ldrsw	x12, 1f898 <_end@@Base+0x17860>
    25bc:	9a129910 	.inst	0x9a129910 ; undefined
    25c0:	00000014 	.inst	0x00000014 ; undefined
    25c4:	00000000 	.inst	0x00000000 ; undefined
    25c8:	0000001c 	.inst	0x0000001c ; undefined
    25cc:	000000fc 	.inst	0x000000fc ; undefined
    25d0:	00001288 	.inst	0x00001288 ; undefined
    25d4:	00000068 	.inst	0x00000068 ; undefined
    25d8:	1d0c5000 	.inst	0x1d0c5000 ; undefined
    25dc:	9d029e10 	.inst	0x9d029e10 ; undefined
    25e0:	00089304 	.inst	0x00089304 ; undefined
    25e4:	00000000 	.inst	0x00000000 ; undefined
    25e8:	0000002c 	.inst	0x0000002c ; undefined
    25ec:	0000011c 	.inst	0x0000011c ; undefined
    25f0:	000012d0 	.inst	0x000012d0 ; undefined
    25f4:	00000154 	.inst	0x00000154 ; undefined
    25f8:	1d0c6000 	.inst	0x1d0c6000 ; undefined
    25fc:	9d029e10 	.inst	0x9d029e10 ; undefined
    2600:	94069304 	bl	1a7210 <_end@@Base+0x19f1d8>
    2604:	960a9508 	bl	fffffffff82a7a24 <_end@@Base+0xfffffffff829f9ec>
    2608:	980e970c 	ldrsw	x12, 1f8e8 <_end@@Base+0x178b0>
    260c:	9a129910 	.inst	0x9a129910 ; undefined
    2610:	00189c14 	.inst	0x00189c14 ; undefined
    2614:	00000000 	.inst	0x00000000 ; undefined
    2618:	00000014 	.inst	0x00000014 ; undefined
    261c:	0000014c 	.inst	0x0000014c ; undefined
    2620:	000013f8 	.inst	0x000013f8 ; undefined
    2624:	00000004 	.inst	0x00000004 ; undefined
	...
    2630:	00000024 	.inst	0x00000024 ; undefined
    2634:	00000164 	.inst	0x00000164 ; undefined
    2638:	000013e8 	.inst	0x000013e8 ; undefined
    263c:	0000016c 	.inst	0x0000016c ; undefined
    2640:	1d0c5c00 	.inst	0x1d0c5c00 ; undefined
    2644:	9d029e10 	.inst	0x9d029e10 ; undefined
    2648:	94069304 	bl	1a7258 <_end@@Base+0x19f220>
    264c:	960a9508 	bl	fffffffff82a7a6c <_end@@Base+0xfffffffff829fa34>
    2650:	980e970c 	ldrsw	x12, 1f930 <_end@@Base+0x178f8>
    2654:	00149910 	.inst	0x00149910 ; undefined
    2658:	00000014 	.inst	0x00000014 ; undefined
    265c:	0000018c 	.inst	0x0000018c ; undefined
    2660:	00001530 	.inst	0x00001530 ; undefined
    2664:	0000000c 	.inst	0x0000000c ; undefined
	...
    2670:	00000014 	.inst	0x00000014 ; undefined
    2674:	000001a4 	.inst	0x000001a4 ; undefined
    2678:	00001528 	.inst	0x00001528 ; undefined
    267c:	00000004 	.inst	0x00000004 ; undefined
	...
    2688:	00000014 	.inst	0x00000014 ; undefined
    268c:	000001bc 	.inst	0x000001bc ; undefined
    2690:	00001518 	.inst	0x00001518 ; undefined
    2694:	00000008 	.inst	0x00000008 ; undefined
	...
    26a0:	0000002c 	.inst	0x0000002c ; undefined
    26a4:	000001d4 	.inst	0x000001d4 ; undefined
    26a8:	00001508 	.inst	0x00001508 ; undefined
    26ac:	00000130 	.inst	0x00000130 ; undefined
    26b0:	1d0c6000 	.inst	0x1d0c6000 ; undefined
    26b4:	9d029e10 	.inst	0x9d029e10 ; undefined
    26b8:	94069304 	bl	1a72c8 <_end@@Base+0x19f290>
    26bc:	960a9508 	bl	fffffffff82a7adc <_end@@Base+0xfffffffff829faa4>
    26c0:	980e970c 	ldrsw	x12, 1f9a0 <_end@@Base+0x17968>
    26c4:	9a129910 	.inst	0x9a129910 ; undefined
    26c8:	9c169b14 	ldr	q20, 2fa28 <_end@@Base+0x279f0>
    26cc:	00000018 	.inst	0x00000018 ; undefined
    26d0:	0000001c 	.inst	0x0000001c ; undefined
    26d4:	00000204 	.inst	0x00000204 ; undefined
    26d8:	00001608 	.inst	0x00001608 ; undefined
    26dc:	0000009c 	.inst	0x0000009c ; undefined
    26e0:	1d0c5000 	.inst	0x1d0c5000 ; undefined
    26e4:	9d029e10 	.inst	0x9d029e10 ; undefined
    26e8:	00089304 	.inst	0x00089304 ; undefined
    26ec:	00000000 	.inst	0x00000000 ; undefined
    26f0:	0000001c 	.inst	0x0000001c ; undefined
    26f4:	00000224 	.inst	0x00000224 ; undefined
    26f8:	00001688 	.inst	0x00001688 ; undefined
    26fc:	00000030 	.inst	0x00000030 ; undefined
    2700:	1d0c4c00 	.inst	0x1d0c4c00 ; undefined
    2704:	9d029e10 	.inst	0x9d029e10 ; undefined
    2708:	00089304 	.inst	0x00089304 ; undefined
    270c:	00000000 	.inst	0x00000000 ; undefined
    2710:	0000001c 	.inst	0x0000001c ; undefined
    2714:	00000244 	.inst	0x00000244 ; undefined
    2718:	00001698 	.inst	0x00001698 ; undefined
    271c:	00000038 	.inst	0x00000038 ; undefined
    2720:	1d0c4c00 	.inst	0x1d0c4c00 ; undefined
    2724:	9d029e10 	.inst	0x9d029e10 ; undefined
    2728:	00089304 	.inst	0x00089304 ; undefined
    272c:	00000000 	.inst	0x00000000 ; undefined
    2730:	0000001c 	.inst	0x0000001c ; undefined
    2734:	00000264 	.inst	0x00000264 ; undefined
    2738:	000016b0 	.inst	0x000016b0 ; undefined
    273c:	00000038 	.inst	0x00000038 ; undefined
    2740:	1d0c4c00 	.inst	0x1d0c4c00 ; undefined
    2744:	9d029e10 	.inst	0x9d029e10 ; undefined
    2748:	94069304 	bl	1a7358 <_end@@Base+0x19f320>
    274c:	00000008 	.inst	0x00000008 ; undefined
    2750:	0000001c 	.inst	0x0000001c ; undefined
    2754:	00000284 	.inst	0x00000284 ; undefined
    2758:	000016c8 	.inst	0x000016c8 ; undefined
    275c:	00000038 	.inst	0x00000038 ; undefined
    2760:	1d0c4c00 	.inst	0x1d0c4c00 ; undefined
    2764:	9d029e10 	.inst	0x9d029e10 ; undefined
    2768:	94069304 	bl	1a7378 <_end@@Base+0x19f340>
    276c:	00000008 	.inst	0x00000008 ; undefined
    2770:	0000001c 	.inst	0x0000001c ; undefined
    2774:	000002a4 	.inst	0x000002a4 ; undefined
    2778:	000016e0 	.inst	0x000016e0 ; undefined
    277c:	0000004c 	.inst	0x0000004c ; undefined
    2780:	1d0c5000 	.inst	0x1d0c5000 ; undefined
    2784:	9d029e10 	.inst	0x9d029e10 ; undefined
    2788:	94069304 	bl	1a7398 <_end@@Base+0x19f360>
    278c:	000c9508 	.inst	0x000c9508 ; undefined
    2790:	0000001c 	.inst	0x0000001c ; undefined
    2794:	000002c4 	.inst	0x000002c4 ; undefined
    2798:	00001710 	.inst	0x00001710 ; undefined
    279c:	00000048 	.inst	0x00000048 ; undefined
    27a0:	1d0c5000 	.inst	0x1d0c5000 ; undefined
    27a4:	9d029e10 	.inst	0x9d029e10 ; undefined
    27a8:	94069304 	bl	1a73b8 <_end@@Base+0x19f380>
    27ac:	000c9508 	.inst	0x000c9508 ; undefined
    27b0:	0000001c 	.inst	0x0000001c ; undefined
    27b4:	000002e4 	.inst	0x000002e4 ; undefined
    27b8:	00001738 	.inst	0x00001738 ; undefined
    27bc:	00000024 	.inst	0x00000024 ; undefined
    27c0:	1d0c4800 	.inst	0x1d0c4800 ; undefined
    27c4:	9d029e10 	.inst	0x9d029e10 ; undefined
    27c8:	00000004 	.inst	0x00000004 ; undefined
    27cc:	00000000 	.inst	0x00000000 ; undefined
    27d0:	0000001c 	.inst	0x0000001c ; undefined
    27d4:	00000304 	.inst	0x00000304 ; undefined
    27d8:	00001740 	.inst	0x00001740 ; undefined
    27dc:	000000ac 	.inst	0x000000ac ; undefined
    27e0:	1d0c4c00 	.inst	0x1d0c4c00 ; undefined
    27e4:	9d029e10 	.inst	0x9d029e10 ; undefined
    27e8:	00089304 	.inst	0x00089304 ; undefined
    27ec:	00000000 	.inst	0x00000000 ; undefined
    27f0:	0000001c 	.inst	0x0000001c ; undefined
    27f4:	00000324 	.inst	0x00000324 ; undefined
    27f8:	000017d0 	.inst	0x000017d0 ; undefined
    27fc:	00000054 	.inst	0x00000054 ; undefined
    2800:	1d0c5000 	.inst	0x1d0c5000 ; undefined
    2804:	9d029e10 	.inst	0x9d029e10 ; undefined
    2808:	94069304 	bl	1a7418 <_end@@Base+0x19f3e0>
    280c:	00000008 	.inst	0x00000008 ; undefined
    2810:	0000001c 	.inst	0x0000001c ; undefined
    2814:	00000344 	.inst	0x00000344 ; undefined
    2818:	00001808 	.inst	0x00001808 ; undefined
    281c:	0000008c 	.inst	0x0000008c ; undefined
    2820:	1d0c5400 	.inst	0x1d0c5400 ; undefined
    2824:	9d029e10 	.inst	0x9d029e10 ; undefined
    2828:	94069304 	bl	1a7438 <_end@@Base+0x19f400>
    282c:	000c9508 	.inst	0x000c9508 ; undefined
    2830:	0000001c 	.inst	0x0000001c ; undefined
    2834:	00000364 	.inst	0x00000364 ; undefined
    2838:	00001878 	.inst	0x00001878 ; undefined
    283c:	00000058 	.inst	0x00000058 ; undefined
    2840:	1d0c5000 	.inst	0x1d0c5000 ; undefined
    2844:	9d029e10 	.inst	0x9d029e10 ; undefined
    2848:	94069304 	bl	1a7458 <_end@@Base+0x19f420>
    284c:	00000008 	.inst	0x00000008 ; undefined
    2850:	0000001c 	.inst	0x0000001c ; undefined
    2854:	00000384 	.inst	0x00000384 ; undefined
    2858:	000018b0 	.inst	0x000018b0 ; undefined
    285c:	00000054 	.inst	0x00000054 ; undefined
    2860:	1d0c5000 	.inst	0x1d0c5000 ; undefined
    2864:	9d029e10 	.inst	0x9d029e10 ; undefined
    2868:	94069304 	bl	1a7478 <_end@@Base+0x19f440>
    286c:	00000008 	.inst	0x00000008 ; undefined
    2870:	0000001c 	.inst	0x0000001c ; undefined
    2874:	000003a4 	.inst	0x000003a4 ; undefined
    2878:	000018e8 	.inst	0x000018e8 ; undefined
    287c:	00000054 	.inst	0x00000054 ; undefined
    2880:	1d0c5000 	.inst	0x1d0c5000 ; undefined
    2884:	9d029e10 	.inst	0x9d029e10 ; undefined
    2888:	94069304 	bl	1a7498 <_end@@Base+0x19f460>
    288c:	00000008 	.inst	0x00000008 ; undefined
    2890:	0000001c 	.inst	0x0000001c ; undefined
    2894:	000003c4 	.inst	0x000003c4 ; undefined
    2898:	00001920 	.inst	0x00001920 ; undefined
    289c:	00000048 	.inst	0x00000048 ; undefined
    28a0:	1d0c5000 	.inst	0x1d0c5000 ; undefined
    28a4:	9d029e10 	.inst	0x9d029e10 ; undefined
    28a8:	94069304 	bl	1a74b8 <_end@@Base+0x19f480>
    28ac:	00000008 	.inst	0x00000008 ; undefined
    28b0:	00000024 	.inst	0x00000024 ; undefined
    28b4:	000003e4 	.inst	0x000003e4 ; undefined
    28b8:	00001948 	.inst	0x00001948 ; undefined
    28bc:	000000c4 	.inst	0x000000c4 ; undefined
    28c0:	1d0c5400 	.inst	0x1d0c5400 ; undefined
    28c4:	9d029e10 	.inst	0x9d029e10 ; undefined
    28c8:	94069304 	bl	1a74d8 <_end@@Base+0x19f4a0>
    28cc:	960a9508 	bl	fffffffff82a7cec <_end@@Base+0xfffffffff829fcb4>
    28d0:	980e970c 	ldrsw	x12, 1fbb0 <_end@@Base+0x17b78>
    28d4:	00000010 	.inst	0x00000010 ; undefined
    28d8:	00000014 	.inst	0x00000014 ; undefined
    28dc:	0000040c 	.inst	0x0000040c ; undefined
    28e0:	000019e8 	.inst	0x000019e8 ; undefined
    28e4:	0000001c 	.inst	0x0000001c ; undefined
	...
    28f0:	00000014 	.inst	0x00000014 ; undefined
    28f4:	00000424 	.inst	0x00000424 ; undefined
    28f8:	000019f0 	.inst	0x000019f0 ; undefined
    28fc:	0000000c 	.inst	0x0000000c ; undefined
	...
    2908:	0000001c 	.inst	0x0000001c ; undefined
    290c:	0000043c 	.inst	0x0000043c ; undefined
    2910:	000019e8 	.inst	0x000019e8 ; undefined
    2914:	00000088 	.inst	0x00000088 ; undefined
    2918:	1d0c5000 	.inst	0x1d0c5000 ; undefined
    291c:	9d029e10 	.inst	0x9d029e10 ; undefined
    2920:	94069304 	bl	1a7530 <_end@@Base+0x19f4f8>
    2924:	000c9508 	.inst	0x000c9508 ; undefined
    2928:	00000014 	.inst	0x00000014 ; undefined
    292c:	0000045c 	.inst	0x0000045c ; undefined
    2930:	00001a50 	.inst	0x00001a50 ; undefined
    2934:	00000020 	.inst	0x00000020 ; undefined
	...
    2940:	00000014 	.inst	0x00000014 ; undefined
    2944:	00000474 	.inst	0x00000474 ; undefined
    2948:	00001a58 	.inst	0x00001a58 ; undefined
    294c:	00000004 	.inst	0x00000004 ; undefined
	...
    2958:	0000002c 	.inst	0x0000002c ; undefined
    295c:	0000048c 	.inst	0x0000048c ; undefined
    2960:	00001a48 	.inst	0x00001a48 ; undefined
    2964:	000001a4 	.inst	0x000001a4 ; undefined
    2968:	1d0c5c00 	.inst	0x1d0c5c00 ; undefined
    296c:	9d029e10 	.inst	0x9d029e10 ; undefined
    2970:	94069304 	bl	1a7580 <_end@@Base+0x19f548>
    2974:	960a9508 	bl	fffffffff82a7d94 <_end@@Base+0xfffffffff829fd5c>
    2978:	980e970c 	ldrsw	x12, 1fc58 <_end@@Base+0x17c20>
    297c:	9c129910 	ldr	q16, 27c9c <_end@@Base+0x1fc64>
    2980:	00000014 	.inst	0x00000014 ; undefined
    2984:	00000000 	.inst	0x00000000 ; undefined
    2988:	0000002c 	.inst	0x0000002c ; undefined
    298c:	000004bc 	.inst	0x000004bc ; undefined
    2990:	00001bc0 	.inst	0x00001bc0 ; undefined
    2994:	000001a4 	.inst	0x000001a4 ; undefined
    2998:	1d0c5c00 	.inst	0x1d0c5c00 ; undefined
    299c:	9d029e10 	.inst	0x9d029e10 ; undefined
    29a0:	94069304 	bl	1a75b0 <_end@@Base+0x19f578>
    29a4:	960a9508 	bl	fffffffff82a7dc4 <_end@@Base+0xfffffffff829fd8c>
    29a8:	980e970c 	ldrsw	x12, 1fc88 <_end@@Base+0x17c50>
    29ac:	9c129910 	ldr	q16, 27ccc <_end@@Base+0x1fc94>
    29b0:	00000014 	.inst	0x00000014 ; undefined
    29b4:	00000000 	.inst	0x00000000 ; undefined
    29b8:	00000024 	.inst	0x00000024 ; undefined
    29bc:	000004ec 	.inst	0x000004ec ; undefined
    29c0:	00001d38 	.inst	0x00001d38 ; undefined
    29c4:	0000016c 	.inst	0x0000016c ; undefined
    29c8:	1d0c5800 	.inst	0x1d0c5800 ; undefined
    29cc:	9d029e10 	.inst	0x9d029e10 ; undefined
    29d0:	94069304 	bl	1a75e0 <_end@@Base+0x19f5a8>
    29d4:	960a9508 	bl	fffffffff82a7df4 <_end@@Base+0xfffffffff829fdbc>
    29d8:	9c0e970c 	ldr	q12, 1fcb8 <_end@@Base+0x17c80>
    29dc:	00000010 	.inst	0x00000010 ; undefined
    29e0:	00000024 	.inst	0x00000024 ; undefined
    29e4:	00000514 	.inst	0x00000514 ; undefined
    29e8:	00001e80 	.inst	0x00001e80 ; undefined
    29ec:	00000124 	.inst	0x00000124 ; undefined
    29f0:	1d0c5800 	.inst	0x1d0c5800 ; undefined
    29f4:	9d029e10 	.inst	0x9d029e10 ; undefined
    29f8:	94069304 	bl	1a7608 <_end@@Base+0x19f5d0>
    29fc:	960a9508 	bl	fffffffff82a7e1c <_end@@Base+0xfffffffff829fde4>
    2a00:	00109c0c 	.inst	0x00109c0c ; undefined
    2a04:	00000000 	.inst	0x00000000 ; undefined
    2a08:	0000002c 	.inst	0x0000002c ; undefined
    2a0c:	0000053c 	.inst	0x0000053c ; undefined
    2a10:	00001f80 	.inst	0x00001f80 ; undefined
    2a14:	000001c8 	.inst	0x000001c8 ; undefined
    2a18:	1d0c6000 	.inst	0x1d0c6000 ; undefined
    2a1c:	9d029e10 	.inst	0x9d029e10 ; undefined
    2a20:	94069304 	bl	1a7630 <_end@@Base+0x19f5f8>
    2a24:	960a9508 	bl	fffffffff82a7e44 <_end@@Base+0xfffffffff829fe0c>
    2a28:	980e970c 	ldrsw	x12, 1fd08 <_end@@Base+0x17cd0>
    2a2c:	9a129910 	.inst	0x9a129910 ; undefined
    2a30:	00189c14 	.inst	0x00189c14 ; undefined
    2a34:	00000000 	.inst	0x00000000 ; undefined
    2a38:	00000024 	.inst	0x00000024 ; undefined
    2a3c:	0000056c 	.inst	0x0000056c ; undefined
    2a40:	00002118 	.inst	0x00002118 ; undefined
    2a44:	00000164 	.inst	0x00000164 ; undefined
    2a48:	1d0c5800 	.inst	0x1d0c5800 ; undefined
    2a4c:	9d029e10 	.inst	0x9d029e10 ; undefined
    2a50:	94069304 	bl	1a7660 <_end@@Base+0x19f628>
    2a54:	960a9508 	bl	fffffffff82a7e74 <_end@@Base+0xfffffffff829fe3c>
    2a58:	9c0e970c 	ldr	q12, 1fd38 <_end@@Base+0x17d00>
    2a5c:	00000010 	.inst	0x00000010 ; undefined
    2a60:	00000024 	.inst	0x00000024 ; undefined
    2a64:	00000594 	.inst	0x00000594 ; undefined
    2a68:	00002258 	.inst	0x00002258 ; undefined
    2a6c:	00000140 	.inst	0x00000140 ; undefined
    2a70:	1d0c5800 	.inst	0x1d0c5800 ; undefined
    2a74:	9d029e10 	.inst	0x9d029e10 ; undefined
    2a78:	94069304 	bl	1a7688 <_end@@Base+0x19f650>
    2a7c:	960a9508 	bl	fffffffff82a7e9c <_end@@Base+0xfffffffff829fe64>
    2a80:	9c0e970c 	ldr	q12, 1fd60 <_end@@Base+0x17d28>
    2a84:	00000010 	.inst	0x00000010 ; undefined
    2a88:	00000014 	.inst	0x00000014 ; undefined
    2a8c:	000005bc 	.inst	0x000005bc ; undefined
    2a90:	00002370 	.inst	0x00002370 ; undefined
    2a94:	00000008 	.inst	0x00000008 ; undefined
	...
    2aa0:	0000001c 	.inst	0x0000001c ; undefined
    2aa4:	000005d4 	.inst	0x000005d4 ; undefined
    2aa8:	00002360 	.inst	0x00002360 ; undefined
    2aac:	00000040 	.inst	0x00000040 ; undefined
    2ab0:	1d0c4c00 	.inst	0x1d0c4c00 ; undefined
    2ab4:	9d029e10 	.inst	0x9d029e10 ; undefined
    2ab8:	94069304 	bl	1a76c8 <_end@@Base+0x19f690>
    2abc:	00000008 	.inst	0x00000008 ; undefined
    2ac0:	0000001c 	.inst	0x0000001c ; undefined
    2ac4:	000005f4 	.inst	0x000005f4 ; undefined
    2ac8:	00002380 	.inst	0x00002380 ; undefined
    2acc:	00000048 	.inst	0x00000048 ; undefined
    2ad0:	1d0c4c00 	.inst	0x1d0c4c00 ; undefined
    2ad4:	9d029e10 	.inst	0x9d029e10 ; undefined
    2ad8:	94069304 	bl	1a76e8 <_end@@Base+0x19f6b0>
    2adc:	00000008 	.inst	0x00000008 ; undefined
    2ae0:	0000001c 	.inst	0x0000001c ; undefined
    2ae4:	00000614 	.inst	0x00000614 ; undefined
    2ae8:	000023a8 	.inst	0x000023a8 ; undefined
    2aec:	00000048 	.inst	0x00000048 ; undefined
    2af0:	1d0c5000 	.inst	0x1d0c5000 ; undefined
    2af4:	9d029e10 	.inst	0x9d029e10 ; undefined
    2af8:	94069304 	bl	1a7708 <_end@@Base+0x19f6d0>
    2afc:	000c9508 	.inst	0x000c9508 ; undefined
    2b00:	0000001c 	.inst	0x0000001c ; undefined
    2b04:	00000634 	.inst	0x00000634 ; undefined
    2b08:	000023d0 	.inst	0x000023d0 ; undefined
    2b0c:	00000050 	.inst	0x00000050 ; undefined
    2b10:	1d0c5000 	.inst	0x1d0c5000 ; undefined
    2b14:	9d029e10 	.inst	0x9d029e10 ; undefined
    2b18:	94069304 	bl	1a7728 <_end@@Base+0x19f6f0>
    2b1c:	000c9508 	.inst	0x000c9508 ; undefined
    2b20:	0000001c 	.inst	0x0000001c ; undefined
    2b24:	00000654 	.inst	0x00000654 ; undefined
    2b28:	00002400 	.inst	0x00002400 ; undefined
    2b2c:	00000048 	.inst	0x00000048 ; undefined
    2b30:	1d0c4c00 	.inst	0x1d0c4c00 ; undefined
    2b34:	9d029e10 	.inst	0x9d029e10 ; undefined
    2b38:	94069304 	bl	1a7748 <_end@@Base+0x19f710>
    2b3c:	00000008 	.inst	0x00000008 ; undefined
    2b40:	0000001c 	.inst	0x0000001c ; undefined
    2b44:	00000674 	.inst	0x00000674 ; undefined
    2b48:	00002428 	.inst	0x00002428 ; undefined
    2b4c:	00000050 	.inst	0x00000050 ; undefined
    2b50:	1d0c4c00 	.inst	0x1d0c4c00 ; undefined
    2b54:	9d029e10 	.inst	0x9d029e10 ; undefined
    2b58:	94069304 	bl	1a7768 <_end@@Base+0x19f730>
    2b5c:	00000008 	.inst	0x00000008 ; undefined
    2b60:	0000001c 	.inst	0x0000001c ; undefined
    2b64:	00000694 	.inst	0x00000694 ; undefined
    2b68:	00002458 	.inst	0x00002458 ; undefined
    2b6c:	00000060 	.inst	0x00000060 ; undefined
    2b70:	1d0c4c00 	.inst	0x1d0c4c00 ; undefined
    2b74:	9d029e10 	.inst	0x9d029e10 ; undefined
    2b78:	94069304 	bl	1a7788 <_end@@Base+0x19f750>
    2b7c:	00000008 	.inst	0x00000008 ; undefined
    2b80:	00000000 	.inst	0x00000000 ; undefined

Disassembly of section .text:

0000000000003000 <AMidiDevice_fromJava@@Base-0x20>:
    3000:	f0000000 	adrp	x0, 6000 <_ZN7android8String16C1EPKc@plt+0xc70>
    3004:	91000000 	add	x0, x0, #0x0
    3008:	1400080e 	b	5040 <__cxa_finalize@plt>
    300c:	00000000 	.inst	0x00000000 ; undefined
    3010:	d65f03c0 	ret
    3014:	00000000 	.inst	0x00000000 ; undefined
    3018:	17fffffe 	b	3010 <AMidiDevice_fromJava@@Base-0x10>
    301c:	00000000 	.inst	0x00000000 ; undefined

0000000000003020 <AMidiDevice_fromJava@@Base>:
    3020:	f81a0ffc 	str	x28, [sp,#-96]!
    3024:	a90167fa 	stp	x26, x25, [sp,#16]
    3028:	a9025ff8 	stp	x24, x23, [sp,#32]
    302c:	a90357f6 	stp	x22, x21, [sp,#48]
    3030:	a9044ff4 	stp	x20, x19, [sp,#64]
    3034:	a9057bfd 	stp	x29, x30, [sp,#80]
    3038:	910143fd 	add	x29, sp, #0x50
    303c:	d10683ff 	sub	sp, sp, #0x1a0
    3040:	d53bd058 	mrs	x24, tpidr_el0
    3044:	f9401708 	ldr	x8, [x24,#40]
    3048:	f81a83a8 	stur	x8, [x29,#-88]
    304c:	b4000281 	cbz	x1, 309c <AMidiDevice_fromJava@@Base+0x7c>
    3050:	aa0003f6 	mov	x22, x0
    3054:	b0000020 	adrp	x0, 8000 <__bss_start@@Base>
    3058:	91000000 	add	x0, x0, #0x0
    305c:	aa0203f3 	mov	x19, x2
    3060:	aa0103f5 	mov	x21, x1
    3064:	940007fb 	bl	5050 <_ZNSt3__15mutex4lockEv@plt>
    3068:	90000039 	adrp	x25, 7000 <_ZN7android8String16C1EPKc@plt+0x1c70>
    306c:	aa1603e0 	mov	x0, x22
    3070:	aa1503e1 	mov	x1, x21
    3074:	f943af39 	ldr	x25, [x25,#1880]
    3078:	f94002c8 	ldr	x8, [x22]
    307c:	f9400322 	ldr	x2, [x25]
    3080:	f9419508 	ldr	x8, [x8,#808]
    3084:	d63f0100 	blr	x8
    3088:	b4000220 	cbz	x0, 30cc <AMidiDevice_fromJava@@Base+0xac>
    308c:	b0000020 	adrp	x0, 8000 <__bss_start@@Base>
    3090:	91000000 	add	x0, x0, #0x0
    3094:	940007f3 	bl	5060 <_ZNSt3__15mutex6unlockEv@plt>
    3098:	14000007 	b	30b4 <AMidiDevice_fromJava@@Base+0x94>
    309c:	f0ffffe1 	adrp	x1, 2000 <AMidiDevice_fromJava@@Base-0x1020>
    30a0:	f0ffffe2 	adrp	x2, 2000 <AMidiDevice_fromJava@@Base-0x1020>
    30a4:	9102d021 	add	x1, x1, #0xb4
    30a8:	9102fc42 	add	x2, x2, #0xbf
    30ac:	321f07e0 	orr	w0, wzr, #0x6
    30b0:	940007f0 	bl	5070 <__android_log_print@plt>
    30b4:	f9401708 	ldr	x8, [x24,#40]
    30b8:	f85a83a9 	ldur	x9, [x29,#-88]
    30bc:	eb09011f 	cmp	x8, x9
    30c0:	54001b01 	b.ne	3420 <AMidiDevice_fromJava@@Base+0x400>
    30c4:	1284e240 	mov	w0, #0xffffd8ed            	// #-10003
    30c8:	140000ce 	b	3400 <AMidiDevice_fromJava@@Base+0x3e0>
    30cc:	90000028 	adrp	x8, 7000 <_ZN7android8String16C1EPKc@plt+0x1c70>
    30d0:	aa1603e0 	mov	x0, x22
    30d4:	aa1503e1 	mov	x1, x21
    30d8:	f943b108 	ldr	x8, [x8,#1888]
    30dc:	f94002c9 	ldr	x9, [x22]
    30e0:	f9400102 	ldr	x2, [x8]
    30e4:	f9417d28 	ldr	x8, [x9,#760]
    30e8:	d63f0100 	blr	x8
    30ec:	aa0003e1 	mov	x1, x0
    30f0:	910023e8 	add	x8, sp, #0x8
    30f4:	aa1603e0 	mov	x0, x22
    30f8:	940007e2 	bl	5080 <_ZN7android20ibinderForJavaObjectEP7_JNIEnvP8_jobject@plt>
    30fc:	f94007e8 	ldr	x8, [sp,#8]
    3100:	b4001088 	cbz	x8, 3310 <AMidiDevice_fromJava@@Base+0x2f0>
    3104:	321c07e0 	orr	w0, wzr, #0x30
    3108:	940007e2 	bl	5090 <_Znwm@plt>
    310c:	aa0003f4 	mov	x20, x0
    3110:	f900001f 	str	xzr, [x0]
    3114:	321d0be0 	orr	w0, wzr, #0x38
    3118:	940007de 	bl	5090 <_Znwm@plt>
    311c:	910023e1 	add	x1, sp, #0x8
    3120:	aa0003f7 	mov	x23, x0
    3124:	94000475 	bl	42f8 <AMidiInputPort_sendFlush@@Base+0x618>
    3128:	f940029a 	ldr	x26, [x20]
    312c:	aa1403e1 	mov	x1, x20
    3130:	f94002e8 	ldr	x8, [x23]
    3134:	f85e8108 	ldur	x8, [x8,#-24]
    3138:	8b0802e0 	add	x0, x23, x8
    313c:	940007d9 	bl	50a0 <_ZNK7android7RefBase9incStrongEPKv@plt>
    3140:	b40000da 	cbz	x26, 3158 <AMidiDevice_fromJava@@Base+0x138>
    3144:	f9400348 	ldr	x8, [x26]
    3148:	aa1403e1 	mov	x1, x20
    314c:	f85e8108 	ldur	x8, [x8,#-24]
    3150:	8b080340 	add	x0, x26, x8
    3154:	940007d7 	bl	50b0 <_ZNK7android7RefBase9decStrongEPKv@plt>
    3158:	f9400288 	ldr	x8, [x20]
    315c:	eb08035f 	cmp	x26, x8
    3160:	54000040 	b.eq	3168 <AMidiDevice_fromJava@@Base+0x148>
    3164:	940007d7 	bl	50c0 <_ZN7android14sp_report_raceEv@plt>
    3168:	90000028 	adrp	x8, 7000 <_ZN7android8String16C1EPKc@plt+0x1c70>
    316c:	aa1603e0 	mov	x0, x22
    3170:	aa1503e1 	mov	x1, x21
    3174:	f943b508 	ldr	x8, [x8,#1896]
    3178:	f94002c9 	ldr	x9, [x22]
    317c:	f9000297 	str	x23, [x20]
    3180:	f9400102 	ldr	x2, [x8]
    3184:	f9417d28 	ldr	x8, [x9,#760]
    3188:	d63f0100 	blr	x8
    318c:	90000028 	adrp	x8, 7000 <_ZN7android8String16C1EPKc@plt+0x1c70>
    3190:	aa0003e1 	mov	x1, x0
    3194:	aa1603e0 	mov	x0, x22
    3198:	f943b908 	ldr	x8, [x8,#1904]
    319c:	f94002c9 	ldr	x9, [x22]
    31a0:	f9400102 	ldr	x2, [x8]
    31a4:	f9419128 	ldr	x8, [x9,#800]
    31a8:	d63f0100 	blr	x8
    31ac:	f94002c8 	ldr	x8, [x22]
    31b0:	aa1503e1 	mov	x1, x21
    31b4:	b9000a80 	str	w0, [x20,#8]
    31b8:	aa1603e0 	mov	x0, x22
    31bc:	f9400322 	ldr	x2, [x25]
    31c0:	aa1403e3 	mov	x3, x20
    31c4:	f941b908 	ldr	x8, [x8,#880]
    31c8:	d63f0100 	blr	x8
    31cc:	f94002c8 	ldr	x8, [x22]
    31d0:	91004281 	add	x1, x20, #0x10
    31d4:	aa1603e0 	mov	x0, x22
    31d8:	f9436d08 	ldr	x8, [x8,#1752]
    31dc:	d63f0100 	blr	x8
    31e0:	f94002c8 	ldr	x8, [x22]
    31e4:	aa1603e0 	mov	x0, x22
    31e8:	aa1503e1 	mov	x1, x21
    31ec:	f9405508 	ldr	x8, [x8,#168]
    31f0:	d63f0100 	blr	x8
    31f4:	90000037 	adrp	x23, 7000 <_ZN7android8String16C1EPKc@plt+0x1c70>
    31f8:	910083fa 	add	x26, sp, #0x20
    31fc:	91004355 	add	x21, x26, #0x10
    3200:	f943bef7 	ldr	x23, [x23,#1912]
    3204:	321d03e1 	orr	w1, wzr, #0x8
    3208:	f9000e80 	str	x0, [x20,#24]
    320c:	aa1503e0 	mov	x0, x21
    3210:	2a1f03e2 	mov	w2, wzr
    3214:	910042e8 	add	x8, x23, #0x10
    3218:	f90013e8 	str	x8, [sp,#32]
    321c:	940007ad 	bl	50d0 <_ZN7android10VectorImplC2Emj@plt>
    3220:	9100e356 	add	x22, x26, #0x38
    3224:	90000039 	adrp	x25, 7000 <_ZN7android8String16C1EPKc@plt+0x1c70>
    3228:	91008339 	add	x25, x25, #0x20
    322c:	aa1603e0 	mov	x0, x22
    3230:	321d03e1 	orr	w1, wzr, #0x8
    3234:	2a1f03e2 	mov	w2, wzr
    3238:	f9001bf9 	str	x25, [sp,#48]
    323c:	940007a5 	bl	50d0 <_ZN7android10VectorImplC2Emj@plt>
    3240:	90000028 	adrp	x8, 7000 <_ZN7android8String16C1EPKc@plt+0x1c70>
    3244:	9101c34a 	add	x10, x26, #0x70
    3248:	91028349 	add	x9, x26, #0xa0
    324c:	f943c108 	ldr	x8, [x8,#1920]
    3250:	910083e1 	add	x1, sp, #0x20
    3254:	f9400280 	ldr	x0, [x20]
    3258:	a90b27ff 	stp	xzr, x9, [sp,#176]
    325c:	91022349 	add	x9, x26, #0x88
    3260:	f9002ff9 	str	x25, [sp,#88]
    3264:	91004108 	add	x8, x8, #0x10
    3268:	a9097fff 	stp	xzr, xzr, [sp,#144]
    326c:	a90a7fe9 	stp	x9, xzr, [sp,#160]
    3270:	9102e349 	add	x9, x26, #0xb8
    3274:	a90c7fff 	stp	xzr, xzr, [sp,#192]
    3278:	a9082be8 	stp	x8, x10, [sp,#128]
    327c:	91034348 	add	x8, x26, #0xd0
    3280:	a90d7fe9 	stp	x9, xzr, [sp,#208]
    3284:	9103a349 	add	x9, x26, #0xe8
    3288:	a90f7fff 	stp	xzr, xzr, [sp,#240]
    328c:	a90e23ff 	stp	xzr, x8, [sp,#224]
    3290:	91040348 	add	x8, x26, #0x100
    3294:	a9107fe9 	stp	x9, xzr, [sp,#256]
    3298:	91046349 	add	x9, x26, #0x118
    329c:	a9127fff 	stp	xzr, xzr, [sp,#288]
    32a0:	a91123ff 	stp	xzr, x8, [sp,#272]
    32a4:	9104c348 	add	x8, x26, #0x130
    32a8:	a9137fe9 	stp	x9, xzr, [sp,#304]
    32ac:	a9157fff 	stp	xzr, xzr, [sp,#336]
    32b0:	a91423ff 	stp	xzr, x8, [sp,#320]
    32b4:	91058348 	add	x8, x26, #0x160
    32b8:	a9187fff 	stp	xzr, xzr, [sp,#384]
    32bc:	a91723ff 	stp	xzr, x8, [sp,#368]
    32c0:	91052348 	add	x8, x26, #0x148
    32c4:	a9167fe8 	stp	x8, xzr, [sp,#352]
    32c8:	f9400008 	ldr	x8, [x0]
    32cc:	f9402509 	ldr	x9, [x8,#72]
    32d0:	910043e8 	add	x8, sp, #0x10
    32d4:	d63f0120 	blr	x9
    32d8:	b94013e8 	ldr	w8, [sp,#16]
    32dc:	340002e8 	cbz	w8, 3338 <AMidiDevice_fromJava@@Base+0x318>
    32e0:	2a1f03e3 	mov	w3, wzr
    32e4:	3102051f 	cmn	w8, #0x81
    32e8:	54000041 	b.ne	32f0 <AMidiDevice_fromJava@@Base+0x2d0>
    32ec:	b94017e3 	ldr	w3, [sp,#20]
    32f0:	f0ffffe1 	adrp	x1, 2000 <AMidiDevice_fromJava@@Base-0x1020>
    32f4:	f0ffffe2 	adrp	x2, 2000 <AMidiDevice_fromJava@@Base-0x1020>
    32f8:	9102d021 	add	x1, x1, #0xb4
    32fc:	9101f042 	add	x2, x2, #0x7c
    3300:	321f07e0 	orr	w0, wzr, #0x6
    3304:	9400075b 	bl	5070 <__android_log_print@plt>
    3308:	2a1f03fa 	mov	w26, wzr
    330c:	14000011 	b	3350 <AMidiDevice_fromJava@@Base+0x330>
    3310:	f0ffffe1 	adrp	x1, 2000 <AMidiDevice_fromJava@@Base-0x1020>
    3314:	f0ffffe2 	adrp	x2, 2000 <AMidiDevice_fromJava@@Base-0x1020>
    3318:	9102d021 	add	x1, x1, #0xb4
    331c:	9106a042 	add	x2, x2, #0x1a8
    3320:	321f07e0 	orr	w0, wzr, #0x6
    3324:	94000753 	bl	5070 <__android_log_print@plt>
    3328:	320003f5 	orr	w21, wzr, #0x1
    332c:	f94007e8 	ldr	x8, [sp,#8]
    3330:	b50004a8 	cbnz	x8, 33c4 <AMidiDevice_fromJava@@Base+0x3a4>
    3334:	14000029 	b	33d8 <AMidiDevice_fromJava@@Base+0x3b8>
    3338:	b9402be8 	ldr	w8, [sp,#40]
    333c:	320003fa 	orr	w26, wzr, #0x1
    3340:	f94023e9 	ldr	x9, [sp,#64]
    3344:	f94037ea 	ldr	x10, [sp,#104]
    3348:	29042688 	stp	w8, w9, [x20,#32]
    334c:	b9002a8a 	str	w10, [x20,#40]
    3350:	910043e8 	add	x8, sp, #0x10
    3354:	91002100 	add	x0, x8, #0x8
    3358:	94000762 	bl	50e0 <_ZN7android7String8D1Ev@plt>
    335c:	910083e9 	add	x9, sp, #0x20
    3360:	910042e8 	add	x8, x23, #0x10
    3364:	91018120 	add	x0, x9, #0x60
    3368:	f90013e8 	str	x8, [sp,#32]
    336c:	940002eb 	bl	3f18 <AMidiInputPort_sendFlush@@Base+0x238>
    3370:	aa1603e0 	mov	x0, x22
    3374:	f9002ff9 	str	x25, [sp,#88]
    3378:	9400075e 	bl	50f0 <_ZN7android10VectorImpl13finish_vectorEv@plt>
    337c:	aa1603e0 	mov	x0, x22
    3380:	94000760 	bl	5100 <_ZN7android10VectorImplD2Ev@plt>
    3384:	aa1503e0 	mov	x0, x21
    3388:	f9001bf9 	str	x25, [sp,#48]
    338c:	94000759 	bl	50f0 <_ZN7android10VectorImpl13finish_vectorEv@plt>
    3390:	aa1503e0 	mov	x0, x21
    3394:	9400075b 	bl	5100 <_ZN7android10VectorImplD2Ev@plt>
    3398:	370000fa 	tbnz	w26, #0, 33b4 <AMidiDevice_fromJava@@Base+0x394>
    339c:	f0ffffe1 	adrp	x1, 2000 <AMidiDevice_fromJava@@Base-0x1020>
    33a0:	f0ffffe2 	adrp	x2, 2000 <AMidiDevice_fromJava@@Base-0x1020>
    33a4:	9102d021 	add	x1, x1, #0xb4
    33a8:	9100e042 	add	x2, x2, #0x38
    33ac:	321f07e0 	orr	w0, wzr, #0x6
    33b0:	94000730 	bl	5070 <__android_log_print@plt>
    33b4:	2a1f03f5 	mov	w21, wzr
    33b8:	f9000274 	str	x20, [x19]
    33bc:	f94007e8 	ldr	x8, [sp,#8]
    33c0:	b40000c8 	cbz	x8, 33d8 <AMidiDevice_fromJava@@Base+0x3b8>
    33c4:	f9400109 	ldr	x9, [x8]
    33c8:	910023e1 	add	x1, sp, #0x8
    33cc:	f85e8129 	ldur	x9, [x9,#-24]
    33d0:	8b090100 	add	x0, x8, x9
    33d4:	94000737 	bl	50b0 <_ZNK7android7RefBase9decStrongEPKv@plt>
    33d8:	b0000020 	adrp	x0, 8000 <__bss_start@@Base>
    33dc:	91000000 	add	x0, x0, #0x0
    33e0:	94000720 	bl	5060 <_ZNSt3__15mutex6unlockEv@plt>
    33e4:	f9401708 	ldr	x8, [x24,#40]
    33e8:	710002bf 	cmp	w21, #0x0
    33ec:	f85a83a9 	ldur	x9, [x29,#-88]
    33f0:	1284e1ea 	mov	w10, #0xffffd8f0            	// #-10000
    33f4:	1a8a03e0 	csel	w0, wzr, w10, eq
    33f8:	eb09011f 	cmp	x8, x9
    33fc:	54000121 	b.ne	3420 <AMidiDevice_fromJava@@Base+0x400>
    3400:	910683ff 	add	sp, sp, #0x1a0
    3404:	a9457bfd 	ldp	x29, x30, [sp,#80]
    3408:	a9444ff4 	ldp	x20, x19, [sp,#64]
    340c:	a94357f6 	ldp	x22, x21, [sp,#48]
    3410:	a9425ff8 	ldp	x24, x23, [sp,#32]
    3414:	a94167fa 	ldp	x26, x25, [sp,#16]
    3418:	f84607fc 	ldr	x28, [sp],#96
    341c:	d65f03c0 	ret
    3420:	9400073c 	bl	5110 <__stack_chk_fail@plt>
    3424:	00000000 	.inst	0x00000000 ; undefined

0000000000003428 <AMidiDevice_release@@Base>:
    3428:	d10103ff 	sub	sp, sp, #0x40
    342c:	f9000bf5 	str	x21, [sp,#16]
    3430:	a9024ff4 	stp	x20, x19, [sp,#32]
    3434:	a9037bfd 	stp	x29, x30, [sp,#48]
    3438:	9100c3fd 	add	x29, sp, #0x30
    343c:	d53bd054 	mrs	x20, tpidr_el0
    3440:	f9401688 	ldr	x8, [x20,#40]
    3444:	f90007e8 	str	x8, [sp,#8]
    3448:	b4000640 	cbz	x0, 3510 <AMidiDevice_release@@Base+0xe8>
    344c:	f9400c08 	ldr	x8, [x0,#24]
    3450:	aa0003f3 	mov	x19, x0
    3454:	b40005e8 	cbz	x8, 3510 <AMidiDevice_release@@Base+0xe8>
    3458:	f9400a60 	ldr	x0, [x19,#16]
    345c:	528000c2 	mov	w2, #0x6                   	// #6
    3460:	72a00022 	movk	w2, #0x1, lsl #16
    3464:	910003e1 	mov	x1, sp
    3468:	f9400008 	ldr	x8, [x0]
    346c:	f9401908 	ldr	x8, [x8,#48]
    3470:	d63f0100 	blr	x8
    3474:	350007a0 	cbnz	w0, 3568 <AMidiDevice_release@@Base+0x140>
    3478:	b0000020 	adrp	x0, 8000 <__bss_start@@Base>
    347c:	91000000 	add	x0, x0, #0x0
    3480:	940006f4 	bl	5050 <_ZNSt3__15mutex4lockEv@plt>
    3484:	f94003e0 	ldr	x0, [sp]
    3488:	90000035 	adrp	x21, 7000 <_ZN7android8String16C1EPKc@plt+0x1c70>
    348c:	f943aeb5 	ldr	x21, [x21,#1880]
    3490:	f9400008 	ldr	x8, [x0]
    3494:	f9400e61 	ldr	x1, [x19,#24]
    3498:	f94002a2 	ldr	x2, [x21]
    349c:	f9419508 	ldr	x8, [x8,#808]
    34a0:	d63f0100 	blr	x8
    34a4:	b40004a0 	cbz	x0, 3538 <AMidiDevice_release@@Base+0x110>
    34a8:	f94003e0 	ldr	x0, [sp]
    34ac:	aa1f03e3 	mov	x3, xzr
    34b0:	f9400e61 	ldr	x1, [x19,#24]
    34b4:	f94002a2 	ldr	x2, [x21]
    34b8:	f9400008 	ldr	x8, [x0]
    34bc:	f941b908 	ldr	x8, [x8,#880]
    34c0:	d63f0100 	blr	x8
    34c4:	b0000020 	adrp	x0, 8000 <__bss_start@@Base>
    34c8:	91000000 	add	x0, x0, #0x0
    34cc:	940006e5 	bl	5060 <_ZNSt3__15mutex6unlockEv@plt>
    34d0:	f94003e0 	ldr	x0, [sp]
    34d4:	f9400e61 	ldr	x1, [x19,#24]
    34d8:	f9400008 	ldr	x8, [x0]
    34dc:	f9405908 	ldr	x8, [x8,#176]
    34e0:	d63f0100 	blr	x8
    34e4:	f9400268 	ldr	x8, [x19]
    34e8:	b40000c8 	cbz	x8, 3500 <AMidiDevice_release@@Base+0xd8>
    34ec:	f9400109 	ldr	x9, [x8]
    34f0:	aa1303e1 	mov	x1, x19
    34f4:	f85e8129 	ldur	x9, [x9,#-24]
    34f8:	8b090100 	add	x0, x8, x9
    34fc:	940006ed 	bl	50b0 <_ZNK7android7RefBase9decStrongEPKv@plt>
    3500:	aa1303e0 	mov	x0, x19
    3504:	94000707 	bl	5120 <_ZdlPv@plt>
    3508:	2a1f03e0 	mov	w0, wzr
    350c:	14000002 	b	3514 <AMidiDevice_release@@Base+0xec>
    3510:	1284e260 	mov	w0, #0xffffd8ec            	// #-10004
    3514:	f9401688 	ldr	x8, [x20,#40]
    3518:	f94007e9 	ldr	x9, [sp,#8]
    351c:	eb09011f 	cmp	x8, x9
    3520:	54000221 	b.ne	3564 <AMidiDevice_release@@Base+0x13c>
    3524:	a9437bfd 	ldp	x29, x30, [sp,#48]
    3528:	a9424ff4 	ldp	x20, x19, [sp,#32]
    352c:	f9400bf5 	ldr	x21, [sp,#16]
    3530:	910103ff 	add	sp, sp, #0x40
    3534:	d65f03c0 	ret
    3538:	f0ffffe1 	adrp	x1, 2000 <AMidiDevice_fromJava@@Base-0x1020>
    353c:	f0ffffe2 	adrp	x2, 2000 <AMidiDevice_fromJava@@Base-0x1020>
    3540:	9102d021 	add	x1, x1, #0xb4
    3544:	9103c442 	add	x2, x2, #0xf1
    3548:	321f07e0 	orr	w0, wzr, #0x6
    354c:	940006c9 	bl	5070 <__android_log_print@plt>
    3550:	b0000020 	adrp	x0, 8000 <__bss_start@@Base>
    3554:	91000000 	add	x0, x0, #0x0
    3558:	940006c2 	bl	5060 <_ZNSt3__15mutex6unlockEv@plt>
    355c:	1284e240 	mov	w0, #0xffffd8ed            	// #-10003
    3560:	17ffffed 	b	3514 <AMidiDevice_release@@Base+0xec>
    3564:	940006eb 	bl	5110 <__stack_chk_fail@plt>
    3568:	2a0003e3 	mov	w3, w0
    356c:	f0ffffe0 	adrp	x0, 2000 <AMidiDevice_fromJava@@Base-0x1020>
    3570:	f0ffffe1 	adrp	x1, 2000 <AMidiDevice_fromJava@@Base-0x1020>
    3574:	f0ffffe2 	adrp	x2, 2000 <AMidiDevice_fromJava@@Base-0x1020>
    3578:	91029800 	add	x0, x0, #0xa6
    357c:	9102d021 	add	x1, x1, #0xb4
    3580:	9104ac42 	add	x2, x2, #0x12b
    3584:	940006eb 	bl	5130 <__android_log_assert@plt>

0000000000003588 <AMidiDevice_getType@@Base>:
    3588:	b4000060 	cbz	x0, 3594 <AMidiDevice_getType@@Base+0xc>
    358c:	b9402000 	ldr	w0, [x0,#32]
    3590:	d65f03c0 	ret
    3594:	1284e260 	mov	w0, #0xffffd8ec            	// #-10004
    3598:	d65f03c0 	ret
    359c:	00000000 	.inst	0x00000000 ; undefined

00000000000035a0 <AMidiDevice_getNumInputPorts@@Base>:
    35a0:	b4000060 	cbz	x0, 35ac <AMidiDevice_getNumInputPorts@@Base+0xc>
    35a4:	b9802400 	ldrsw	x0, [x0,#36]
    35a8:	d65f03c0 	ret
    35ac:	9284e260 	mov	x0, #0xffffffffffffd8ec    	// #-10004
    35b0:	d65f03c0 	ret
    35b4:	00000000 	.inst	0x00000000 ; undefined

00000000000035b8 <AMidiDevice_getNumOutputPorts@@Base>:
    35b8:	b4000060 	cbz	x0, 35c4 <AMidiDevice_getNumOutputPorts@@Base+0xc>
    35bc:	b9802800 	ldrsw	x0, [x0,#40]
    35c0:	d65f03c0 	ret
    35c4:	9284e260 	mov	x0, #0xffffffffffffd8ec    	// #-10004
    35c8:	d65f03c0 	ret
    35cc:	00000000 	.inst	0x00000000 ; undefined

00000000000035d0 <AMidiOutputPort_open@@Base>:
    35d0:	aa0203e3 	mov	x3, x2
    35d4:	2a1f03e2 	mov	w2, wzr
    35d8:	14000002 	b	35e0 <AMidiOutputPort_open@@Base+0x10>
    35dc:	00000000 	.inst	0x00000000 ; undefined
    35e0:	d10203ff 	sub	sp, sp, #0x80
    35e4:	a90367fa 	stp	x26, x25, [sp,#48]
    35e8:	a9045ff8 	stp	x24, x23, [sp,#64]
    35ec:	a90557f6 	stp	x22, x21, [sp,#80]
    35f0:	a9064ff4 	stp	x20, x19, [sp,#96]
    35f4:	a9077bfd 	stp	x29, x30, [sp,#112]
    35f8:	9101c3fd 	add	x29, sp, #0x70
    35fc:	d53bd058 	mrs	x24, tpidr_el0
    3600:	f9401708 	ldr	x8, [x24,#40]
    3604:	f90017e8 	str	x8, [sp,#40]
    3608:	b40003c0 	cbz	x0, 3680 <AMidiOutputPort_open@@Base+0xb0>
    360c:	aa0003f4 	mov	x20, x0
    3610:	52800500 	mov	w0, #0x28                  	// #40
    3614:	aa0303f3 	mov	x19, x3
    3618:	2a0203f7 	mov	w23, w2
    361c:	2a0103f5 	mov	w21, w1
    3620:	9400069c 	bl	5090 <_Znwm@plt>
    3624:	aa0003f6 	mov	x22, x0
    3628:	940006c6 	bl	5140 <_ZN7android7BBinderC1Ev@plt>
    362c:	f94002c8 	ldr	x8, [x22]
    3630:	910083e1 	add	x1, sp, #0x20
    3634:	f90013f6 	str	x22, [sp,#32]
    3638:	f85e8108 	ldur	x8, [x8,#-24]
    363c:	8b0802c0 	add	x0, x22, x8
    3640:	94000698 	bl	50a0 <_ZNK7android7RefBase9incStrongEPKv@plt>
    3644:	f9400296 	ldr	x22, [x20]
    3648:	12800019 	mov	w25, #0xffffffff            	// #-1
    364c:	b9001bf9 	str	w25, [sp,#24]
    3650:	340001d7 	cbz	w23, 3688 <AMidiOutputPort_open@@Base+0xb8>
    3654:	f94013e8 	ldr	x8, [sp,#32]
    3658:	f90003e8 	str	x8, [sp]
    365c:	b40000c8 	cbz	x8, 3674 <AMidiOutputPort_open@@Base+0xa4>
    3660:	f9400109 	ldr	x9, [x8]
    3664:	910003e1 	mov	x1, sp
    3668:	f85e8129 	ldur	x9, [x9,#-24]
    366c:	8b090100 	add	x0, x8, x9
    3670:	9400068c 	bl	50a0 <_ZNK7android7RefBase9incStrongEPKv@plt>
    3674:	f94002c8 	ldr	x8, [x22]
    3678:	f9401109 	ldr	x9, [x8,#32]
    367c:	1400000d 	b	36b0 <AMidiOutputPort_open@@Base+0xe0>
    3680:	1284e274 	mov	w20, #0xffffd8ec            	// #-10004
    3684:	14000068 	b	3824 <AMidiOutputPort_open@@Base+0x254>
    3688:	f94013e8 	ldr	x8, [sp,#32]
    368c:	f90003e8 	str	x8, [sp]
    3690:	b40000c8 	cbz	x8, 36a8 <AMidiOutputPort_open@@Base+0xd8>
    3694:	f9400109 	ldr	x9, [x8]
    3698:	910003e1 	mov	x1, sp
    369c:	f85e8129 	ldur	x9, [x9,#-24]
    36a0:	8b090100 	add	x0, x8, x9
    36a4:	9400067f 	bl	50a0 <_ZNK7android7RefBase9incStrongEPKv@plt>
    36a8:	f94002c8 	ldr	x8, [x22]
    36ac:	f9401509 	ldr	x9, [x8,#40]
    36b0:	910023e8 	add	x8, sp, #0x8
    36b4:	910003e1 	mov	x1, sp
    36b8:	910063e3 	add	x3, sp, #0x18
    36bc:	aa1603e0 	mov	x0, x22
    36c0:	2a1503e2 	mov	w2, w21
    36c4:	d63f0120 	blr	x9
    36c8:	f94003e8 	ldr	x8, [sp]
    36cc:	b40000c8 	cbz	x8, 36e4 <AMidiOutputPort_open@@Base+0x114>
    36d0:	f9400109 	ldr	x9, [x8]
    36d4:	910003e1 	mov	x1, sp
    36d8:	f85e8129 	ldur	x9, [x9,#-24]
    36dc:	8b090100 	add	x0, x8, x9
    36e0:	94000674 	bl	50b0 <_ZNK7android7RefBase9decStrongEPKv@plt>
    36e4:	b9400be8 	ldr	w8, [sp,#8]
    36e8:	340000a8 	cbz	w8, 36fc <AMidiOutputPort_open@@Base+0x12c>
    36ec:	3102051f 	cmn	w8, #0x81
    36f0:	54000501 	b.ne	3790 <AMidiOutputPort_open@@Base+0x1c0>
    36f4:	b9400fe3 	ldr	w3, [sp,#12]
    36f8:	14000027 	b	3794 <AMidiOutputPort_open@@Base+0x1c4>
    36fc:	321b03e0 	orr	w0, wzr, #0x20
    3700:	94000664 	bl	5090 <_Znwm@plt>
    3704:	320003e8 	orr	w8, wzr, #0x1
    3708:	aa0003f7 	mov	x23, x0
    370c:	aa0003f6 	mov	x22, x0
    3710:	aa0003f5 	mov	x21, x0
    3714:	f8010eff 	str	xzr, [x23,#16]!
    3718:	b8018ed9 	str	w25, [x22,#24]!
    371c:	889ffc08 	stlr	w8, [x0]
    3720:	f9000414 	str	x20, [x0,#8]
    3724:	f94002fa 	ldr	x26, [x23]
    3728:	f94013f4 	ldr	x20, [sp,#32]
    372c:	b40000d4 	cbz	x20, 3744 <AMidiOutputPort_open@@Base+0x174>
    3730:	f9400288 	ldr	x8, [x20]
    3734:	aa1703e1 	mov	x1, x23
    3738:	f85e8108 	ldur	x8, [x8,#-24]
    373c:	8b080280 	add	x0, x20, x8
    3740:	94000658 	bl	50a0 <_ZNK7android7RefBase9incStrongEPKv@plt>
    3744:	b40000da 	cbz	x26, 375c <AMidiOutputPort_open@@Base+0x18c>
    3748:	f9400348 	ldr	x8, [x26]
    374c:	aa1703e1 	mov	x1, x23
    3750:	f85e8108 	ldur	x8, [x8,#-24]
    3754:	8b080340 	add	x0, x26, x8
    3758:	94000656 	bl	50b0 <_ZNK7android7RefBase9decStrongEPKv@plt>
    375c:	f94002e8 	ldr	x8, [x23]
    3760:	eb08035f 	cmp	x26, x8
    3764:	54000040 	b.eq	376c <AMidiOutputPort_open@@Base+0x19c>
    3768:	94000656 	bl	50c0 <_ZN7android14sp_report_raceEv@plt>
    376c:	b9401be1 	ldr	w1, [sp,#24]
    3770:	910063e2 	add	x2, sp, #0x18
    3774:	aa1603e0 	mov	x0, x22
    3778:	f9000ab4 	str	x20, [x21,#16]
    377c:	b9001bf9 	str	w25, [sp,#24]
    3780:	940002a0 	bl	4200 <AMidiInputPort_sendFlush@@Base+0x520>
    3784:	2a1f03f4 	mov	w20, wzr
    3788:	f9000275 	str	x21, [x19]
    378c:	14000009 	b	37b0 <AMidiOutputPort_open@@Base+0x1e0>
    3790:	2a1f03e3 	mov	w3, wzr
    3794:	f0ffffe1 	adrp	x1, 2000 <AMidiDevice_fromJava@@Base-0x1020>
    3798:	f0ffffe2 	adrp	x2, 2000 <AMidiDevice_fromJava@@Base-0x1020>
    379c:	9102d021 	add	x1, x1, #0xb4
    37a0:	910a3442 	add	x2, x2, #0x28d
    37a4:	321f07e0 	orr	w0, wzr, #0x6
    37a8:	94000632 	bl	5070 <__android_log_print@plt>
    37ac:	1284e1f4 	mov	w20, #0xffffd8f0            	// #-10000
    37b0:	910023e8 	add	x8, sp, #0x8
    37b4:	91002100 	add	x0, x8, #0x8
    37b8:	9400064a 	bl	50e0 <_ZN7android7String8D1Ev@plt>
    37bc:	94000665 	bl	5150 <__errno@plt>
    37c0:	b9401bf5 	ldr	w21, [sp,#24]
    37c4:	aa0003f3 	mov	x19, x0
    37c8:	b9400016 	ldr	w22, [x0]
    37cc:	310006bf 	cmn	w21, #0x1
    37d0:	540001a0 	b.eq	3804 <AMidiOutputPort_open@@Base+0x234>
    37d4:	90000028 	adrp	x8, 7000 <_ZN7android8String16C1EPKc@plt+0x1c70>
    37d8:	f943c508 	ldr	x8, [x8,#1928]
    37dc:	b4000108 	cbz	x8, 37fc <AMidiOutputPort_open@@Base+0x22c>
    37e0:	910063e1 	add	x1, sp, #0x18
    37e4:	320007e0 	orr	w0, wzr, #0x3
    37e8:	9400065e 	bl	5160 <android_fdsan_create_owner_tag@plt>
    37ec:	aa0003e1 	mov	x1, x0
    37f0:	2a1503e0 	mov	w0, w21
    37f4:	9400065f 	bl	5170 <android_fdsan_close_with_tag@plt>
    37f8:	14000003 	b	3804 <AMidiOutputPort_open@@Base+0x234>
    37fc:	2a1503e0 	mov	w0, w21
    3800:	94000660 	bl	5180 <close@plt>
    3804:	b9000276 	str	w22, [x19]
    3808:	f94013e8 	ldr	x8, [sp,#32]
    380c:	b40000c8 	cbz	x8, 3824 <AMidiOutputPort_open@@Base+0x254>
    3810:	f9400109 	ldr	x9, [x8]
    3814:	910083e1 	add	x1, sp, #0x20
    3818:	f85e8129 	ldur	x9, [x9,#-24]
    381c:	8b090100 	add	x0, x8, x9
    3820:	94000624 	bl	50b0 <_ZNK7android7RefBase9decStrongEPKv@plt>
    3824:	f9401708 	ldr	x8, [x24,#40]
    3828:	f94017e9 	ldr	x9, [sp,#40]
    382c:	eb09011f 	cmp	x8, x9
    3830:	54000121 	b.ne	3854 <AMidiOutputPort_open@@Base+0x284>
    3834:	2a1403e0 	mov	w0, w20
    3838:	a9477bfd 	ldp	x29, x30, [sp,#112]
    383c:	a9464ff4 	ldp	x20, x19, [sp,#96]
    3840:	a94557f6 	ldp	x22, x21, [sp,#80]
    3844:	a9445ff8 	ldp	x24, x23, [sp,#64]
    3848:	a94367fa 	ldp	x26, x25, [sp,#48]
    384c:	910203ff 	add	sp, sp, #0x80
    3850:	d65f03c0 	ret
    3854:	9400062f 	bl	5110 <__stack_chk_fail@plt>

0000000000003858 <AMidiOutputPort_receive@@Base>:
    3858:	d100c3ff 	sub	sp, sp, #0x30
    385c:	f9000bf3 	str	x19, [sp,#16]
    3860:	a9027bfd 	stp	x29, x30, [sp,#32]
    3864:	910083fd 	add	x29, sp, #0x20
    3868:	d53bd053 	mrs	x19, tpidr_el0
    386c:	aa0003e8 	mov	x8, x0
    3870:	f9401669 	ldr	x9, [x19,#40]
    3874:	928002a0 	mov	x0, #0xffffffffffffffea    	// #-22
    3878:	f90007e9 	str	x9, [sp,#8]
    387c:	b4000108 	cbz	x8, 389c <AMidiOutputPort_receive@@Base+0x44>
    3880:	b40000e2 	cbz	x2, 389c <AMidiOutputPort_receive@@Base+0x44>
    3884:	910003e0 	mov	x0, sp
    3888:	f90003e8 	str	x8, [sp]
    388c:	9400000d 	bl	38c0 <AMidiOutputPort_receive@@Base+0x68>
    3890:	f94003e8 	ldr	x8, [sp]
    3894:	320003e9 	orr	w9, wzr, #0x1
    3898:	889ffd09 	stlr	w9, [x8]
    389c:	f9401668 	ldr	x8, [x19,#40]
    38a0:	f94007e9 	ldr	x9, [sp,#8]
    38a4:	eb09011f 	cmp	x8, x9
    38a8:	540000a1 	b.ne	38bc <AMidiOutputPort_receive@@Base+0x64>
    38ac:	a9427bfd 	ldp	x29, x30, [sp,#32]
    38b0:	f9400bf3 	ldr	x19, [sp,#16]
    38b4:	9100c3ff 	add	sp, sp, #0x30
    38b8:	d65f03c0 	ret
    38bc:	94000615 	bl	5110 <__stack_chk_fail@plt>
    38c0:	f81a0ffc 	str	x28, [sp,#-96]!
    38c4:	a90167fa 	stp	x26, x25, [sp,#16]
    38c8:	a9025ff8 	stp	x24, x23, [sp,#32]
    38cc:	a90357f6 	stp	x22, x21, [sp,#48]
    38d0:	a9044ff4 	stp	x20, x19, [sp,#64]
    38d4:	a9057bfd 	stp	x29, x30, [sp,#80]
    38d8:	910143fd 	add	x29, sp, #0x50
    38dc:	d11043ff 	sub	sp, sp, #0x410
    38e0:	d53bd05a 	mrs	x26, tpidr_el0
    38e4:	aa0503f4 	mov	x20, x5
    38e8:	f9401748 	ldr	x8, [x26,#40]
    38ec:	aa0403f3 	mov	x19, x4
    38f0:	aa0303f6 	mov	x22, x3
    38f4:	aa0203f5 	mov	x21, x2
    38f8:	aa0003f8 	mov	x24, x0
    38fc:	f81a83a8 	stur	x8, [x29,#-88]
    3900:	aa0103f7 	mov	x23, x1
    3904:	f9400008 	ldr	x8, [x0]
    3908:	321f03e9 	orr	w9, wzr, #0x2
    390c:	885ffd0a 	ldaxr	w10, [x8]
    3910:	7100055f 	cmp	w10, #0x1
    3914:	540005e1 	b.ne	39d0 <AMidiOutputPort_receive@@Base+0x178>
    3918:	880afd09 	stlxr	w10, w9, [x8]
    391c:	35ffff8a 	cbnz	w10, 390c <AMidiOutputPort_receive@@Base+0xb4>
    3920:	f9400308 	ldr	x8, [x24]
    3924:	320003e9 	orr	w9, wzr, #0x1
    3928:	d10183a0 	sub	x0, x29, #0x60
    392c:	320003e1 	orr	w1, wzr, #0x1
    3930:	2a1f03e2 	mov	w2, wzr
    3934:	b9401908 	ldr	w8, [x8,#24]
    3938:	321d03e3 	orr	w3, wzr, #0x8
    393c:	293427a8 	stp	w8, w9, [x29,#-96]
    3940:	94000614 	bl	5190 <__poll_chk@plt>
    3944:	7100041f 	cmp	w0, #0x1
    3948:	540004ab 	b.lt	39dc <AMidiOutputPort_receive@@Base+0x184>
    394c:	f9400308 	ldr	x8, [x24]
    3950:	910003e1 	mov	x1, sp
    3954:	321603e2 	orr	w2, wzr, #0x400
    3958:	321603e3 	orr	w3, wzr, #0x400
    395c:	b9401900 	ldr	w0, [x8,#24]
    3960:	94000610 	bl	51a0 <__read_chk@plt>
    3964:	aa0003f8 	mov	x24, x0
    3968:	9284e1e0 	mov	x0, #0xffffffffffffd8f0    	// #-10000
    396c:	f100131f 	cmp	x24, #0x4
    3970:	54000380 	b.eq	39e0 <AMidiOutputPort_receive@@Base+0x188>
    3974:	f100071f 	cmp	x24, #0x1
    3978:	5400034b 	b.lt	39e0 <AMidiOutputPort_receive@@Base+0x188>
    397c:	394003e9 	ldrb	w9, [sp]
    3980:	aa1f03f9 	mov	x25, xzr
    3984:	f1002708 	subs	x8, x24, #0x9
    3988:	b90002e9 	str	w9, [x23]
    398c:	540001cb 	b.lt	39c4 <AMidiOutputPort_receive@@Base+0x16c>
    3990:	7100053f 	cmp	w9, #0x1
    3994:	54000181 	b.ne	39c4 <AMidiOutputPort_receive@@Base+0x16c>
    3998:	eb16011f 	cmp	x8, x22
    399c:	910003f7 	mov	x23, sp
    39a0:	9a963119 	csel	x25, x8, x22, cc
    39a4:	b24002e1 	orr	x1, x23, #0x1
    39a8:	aa1503e0 	mov	x0, x21
    39ac:	aa1903e2 	mov	x2, x25
    39b0:	94000600 	bl	51b0 <memcpy@plt>
    39b4:	b4000094 	cbz	x20, 39c4 <AMidiOutputPort_receive@@Base+0x16c>
    39b8:	8b1802e8 	add	x8, x23, x24
    39bc:	f85f8108 	ldur	x8, [x8,#-8]
    39c0:	f9000288 	str	x8, [x20]
    39c4:	320003e0 	orr	w0, wzr, #0x1
    39c8:	f9000279 	str	x25, [x19]
    39cc:	14000005 	b	39e0 <AMidiOutputPort_receive@@Base+0x188>
    39d0:	9284e1e0 	mov	x0, #0xffffffffffffd8f0    	// #-10000
    39d4:	d5033f5f 	clrex
    39d8:	14000002 	b	39e0 <AMidiOutputPort_receive@@Base+0x188>
    39dc:	aa1f03e0 	mov	x0, xzr
    39e0:	f9401748 	ldr	x8, [x26,#40]
    39e4:	f85a83a9 	ldur	x9, [x29,#-88]
    39e8:	eb09011f 	cmp	x8, x9
    39ec:	54000121 	b.ne	3a10 <AMidiOutputPort_receive@@Base+0x1b8>
    39f0:	911043ff 	add	sp, sp, #0x410
    39f4:	a9457bfd 	ldp	x29, x30, [sp,#80]
    39f8:	a9444ff4 	ldp	x20, x19, [sp,#64]
    39fc:	a94357f6 	ldp	x22, x21, [sp,#48]
    3a00:	a9425ff8 	ldp	x24, x23, [sp,#32]
    3a04:	a94167fa 	ldp	x26, x25, [sp,#16]
    3a08:	f84607fc 	ldr	x28, [sp],#96
    3a0c:	d65f03c0 	ret
    3a10:	940005c0 	bl	5110 <__stack_chk_fail@plt>
    3a14:	00000000 	.inst	0x00000000 ; undefined

0000000000003a18 <AMidiOutputPort_close@@Base>:
    3a18:	14000002 	b	3a20 <AMidiOutputPort_close@@Base+0x8>
    3a1c:	00000000 	.inst	0x00000000 ; undefined
    3a20:	d101c3ff 	sub	sp, sp, #0x70
    3a24:	f90013f9 	str	x25, [sp,#32]
    3a28:	a9035ff8 	stp	x24, x23, [sp,#48]
    3a2c:	a90457f6 	stp	x22, x21, [sp,#64]
    3a30:	a9054ff4 	stp	x20, x19, [sp,#80]
    3a34:	a9067bfd 	stp	x29, x30, [sp,#96]
    3a38:	910183fd 	add	x29, sp, #0x60
    3a3c:	d53bd058 	mrs	x24, tpidr_el0
    3a40:	f9401708 	ldr	x8, [x24,#40]
    3a44:	f9000fe8 	str	x8, [sp,#24]
    3a48:	b40008a0 	cbz	x0, 3b5c <AMidiOutputPort_close@@Base+0x144>
    3a4c:	aa0003f3 	mov	x19, x0
    3a50:	320003e8 	orr	w8, wzr, #0x1
    3a54:	2a0803e9 	mov	w9, w8
    3a58:	885ffe68 	ldaxr	w8, [x19]
    3a5c:	6b09011f 	cmp	w8, w9
    3a60:	540000a1 	b.ne	3a74 <AMidiOutputPort_close@@Base+0x5c>
    3a64:	8809fe7f 	stlxr	w9, wzr, [x19]
    3a68:	340000c9 	cbz	w9, 3a80 <AMidiOutputPort_close@@Base+0x68>
    3a6c:	35ffff48 	cbnz	w8, 3a54 <AMidiOutputPort_close@@Base+0x3c>
    3a70:	1400003b 	b	3b5c <AMidiOutputPort_close@@Base+0x144>
    3a74:	d5033f5f 	clrex
    3a78:	35fffee8 	cbnz	w8, 3a54 <AMidiOutputPort_close@@Base+0x3c>
    3a7c:	14000038 	b	3b5c <AMidiOutputPort_close@@Base+0x144>
    3a80:	f9400668 	ldr	x8, [x19,#8]
    3a84:	91004274 	add	x20, x19, #0x10
    3a88:	aa1403e1 	mov	x1, x20
    3a8c:	f9400100 	ldr	x0, [x8]
    3a90:	f9400008 	ldr	x8, [x0]
    3a94:	f9401909 	ldr	x9, [x8,#48]
    3a98:	910023e8 	add	x8, sp, #0x8
    3a9c:	d63f0120 	blr	x9
    3aa0:	b9400be8 	ldr	w8, [sp,#8]
    3aa4:	34000188 	cbz	w8, 3ad4 <AMidiOutputPort_close@@Base+0xbc>
    3aa8:	3102051f 	cmn	w8, #0x81
    3aac:	54000061 	b.ne	3ab8 <AMidiOutputPort_close@@Base+0xa0>
    3ab0:	b9400fe3 	ldr	w3, [sp,#12]
    3ab4:	14000002 	b	3abc <AMidiOutputPort_close@@Base+0xa4>
    3ab8:	2a1f03e3 	mov	w3, wzr
    3abc:	f0ffffe1 	adrp	x1, 2000 <AMidiDevice_fromJava@@Base-0x1020>
    3ac0:	f0ffffe2 	adrp	x2, 2000 <AMidiDevice_fromJava@@Base-0x1020>
    3ac4:	9102d021 	add	x1, x1, #0xb4
    3ac8:	91079442 	add	x2, x2, #0x1e5
    3acc:	321f07e0 	orr	w0, wzr, #0x6
    3ad0:	94000568 	bl	5070 <__android_log_print@plt>
    3ad4:	9400059f 	bl	5150 <__errno@plt>
    3ad8:	aa1303f6 	mov	x22, x19
    3adc:	aa0003f5 	mov	x21, x0
    3ae0:	b8418ed7 	ldr	w23, [x22,#24]!
    3ae4:	b9400019 	ldr	w25, [x0]
    3ae8:	310006ff 	cmn	w23, #0x1
    3aec:	540001a0 	b.eq	3b20 <AMidiOutputPort_close@@Base+0x108>
    3af0:	90000028 	adrp	x8, 7000 <_ZN7android8String16C1EPKc@plt+0x1c70>
    3af4:	f943c508 	ldr	x8, [x8,#1928]
    3af8:	b4000108 	cbz	x8, 3b18 <AMidiOutputPort_close@@Base+0x100>
    3afc:	320007e0 	orr	w0, wzr, #0x3
    3b00:	aa1603e1 	mov	x1, x22
    3b04:	94000597 	bl	5160 <android_fdsan_create_owner_tag@plt>
    3b08:	aa0003e1 	mov	x1, x0
    3b0c:	2a1703e0 	mov	w0, w23
    3b10:	94000598 	bl	5170 <android_fdsan_close_with_tag@plt>
    3b14:	14000003 	b	3b20 <AMidiOutputPort_close@@Base+0x108>
    3b18:	2a1703e0 	mov	w0, w23
    3b1c:	94000599 	bl	5180 <close@plt>
    3b20:	12800008 	mov	w8, #0xffffffff            	// #-1
    3b24:	b90002c8 	str	w8, [x22]
    3b28:	b90002b9 	str	w25, [x21]
    3b2c:	f9400288 	ldr	x8, [x20]
    3b30:	b40000c8 	cbz	x8, 3b48 <AMidiOutputPort_close@@Base+0x130>
    3b34:	f9400109 	ldr	x9, [x8]
    3b38:	aa1403e1 	mov	x1, x20
    3b3c:	f85e8129 	ldur	x9, [x9,#-24]
    3b40:	8b090100 	add	x0, x8, x9
    3b44:	9400055b 	bl	50b0 <_ZNK7android7RefBase9decStrongEPKv@plt>
    3b48:	aa1303e0 	mov	x0, x19
    3b4c:	94000575 	bl	5120 <_ZdlPv@plt>
    3b50:	910023e8 	add	x8, sp, #0x8
    3b54:	91002100 	add	x0, x8, #0x8
    3b58:	94000562 	bl	50e0 <_ZN7android7String8D1Ev@plt>
    3b5c:	f9401708 	ldr	x8, [x24,#40]
    3b60:	f9400fe9 	ldr	x9, [sp,#24]
    3b64:	eb09011f 	cmp	x8, x9
    3b68:	54000101 	b.ne	3b88 <AMidiOutputPort_close@@Base+0x170>
    3b6c:	a9467bfd 	ldp	x29, x30, [sp,#96]
    3b70:	a9454ff4 	ldp	x20, x19, [sp,#80]
    3b74:	a94457f6 	ldp	x22, x21, [sp,#64]
    3b78:	a9435ff8 	ldp	x24, x23, [sp,#48]
    3b7c:	f94013f9 	ldr	x25, [sp,#32]
    3b80:	9101c3ff 	add	sp, sp, #0x70
    3b84:	d65f03c0 	ret
    3b88:	94000562 	bl	5110 <__stack_chk_fail@plt>
    3b8c:	00000000 	.inst	0x00000000 ; undefined

0000000000003b90 <AMidiInputPort_open@@Base>:
    3b90:	aa0203e3 	mov	x3, x2
    3b94:	320003e2 	orr	w2, wzr, #0x1
    3b98:	17fffe92 	b	35e0 <AMidiOutputPort_open@@Base+0x10>
    3b9c:	00000000 	.inst	0x00000000 ; undefined

0000000000003ba0 <AMidiInputPort_close@@Base>:
    3ba0:	17ffffa0 	b	3a20 <AMidiOutputPort_close@@Base+0x8>
    3ba4:	00000000 	.inst	0x00000000 ; undefined

0000000000003ba8 <AMidiInputPort_send@@Base>:
    3ba8:	aa1f03e3 	mov	x3, xzr
    3bac:	14000585 	b	51c0 <AMidiInputPort_sendWithTimestamp@plt>

0000000000003bb0 <AMidiInputPort_sendWithTimestamp@@Base>:
    3bb0:	a9ba6ffc 	stp	x28, x27, [sp,#-96]!
    3bb4:	a90167fa 	stp	x26, x25, [sp,#16]
    3bb8:	a9025ff8 	stp	x24, x23, [sp,#32]
    3bbc:	a90357f6 	stp	x22, x21, [sp,#48]
    3bc0:	a9044ff4 	stp	x20, x19, [sp,#64]
    3bc4:	a9057bfd 	stp	x29, x30, [sp,#80]
    3bc8:	910143fd 	add	x29, sp, #0x50
    3bcc:	d11083ff 	sub	sp, sp, #0x420
    3bd0:	d53bd049 	mrs	x9, tpidr_el0
    3bd4:	9284e273 	mov	x19, #0xffffffffffffd8ec    	// #-10004
    3bd8:	f9401528 	ldr	x8, [x9,#40]
    3bdc:	f81a03a8 	stur	x8, [x29,#-96]
    3be0:	b4000640 	cbz	x0, 3ca8 <AMidiInputPort_sendWithTimestamp@@Base+0xf8>
    3be4:	aa0103f6 	mov	x22, x1
    3be8:	b4000601 	cbz	x1, 3ca8 <AMidiInputPort_sendWithTimestamp@@Base+0xf8>
    3bec:	aa0203f5 	mov	x21, x2
    3bf0:	f90003e9 	str	x9, [sp]
    3bf4:	b4000462 	cbz	x2, 3c80 <AMidiInputPort_sendWithTimestamp@@Base+0xd0>
    3bf8:	910043e8 	add	x8, sp, #0x10
    3bfc:	aa0303f4 	mov	x20, x3
    3c00:	aa0003f7 	mov	x23, x0
    3c04:	aa1f03f3 	mov	x19, xzr
    3c08:	52807efc 	mov	w28, #0x3f7                 	// #1015
    3c0c:	b2400118 	orr	x24, x8, #0x1
    3c10:	320003fb 	orr	w27, wzr, #0x1
    3c14:	cb1302a8 	sub	x8, x21, x19
    3c18:	f90007f4 	str	x20, [sp,#8]
    3c1c:	f10fdd1f 	cmp	x8, #0x3f7
    3c20:	390043fb 	strb	w27, [sp,#16]
    3c24:	9a9c311a 	csel	x26, x8, x28, cc
    3c28:	8b1302c1 	add	x1, x22, x19
    3c2c:	aa1803e0 	mov	x0, x24
    3c30:	aa1a03e2 	mov	x2, x26
    3c34:	320027e3 	orr	w3, wzr, #0x3ff
    3c38:	94000566 	bl	51d0 <__memcpy_chk@plt>
    3c3c:	f94007e8 	ldr	x8, [sp,#8]
    3c40:	91002759 	add	x25, x26, #0x9
    3c44:	b9401ae0 	ldr	w0, [x23,#24]
    3c48:	910043e1 	add	x1, sp, #0x10
    3c4c:	aa1903e2 	mov	x2, x25
    3c50:	321603e3 	orr	w3, wzr, #0x400
    3c54:	f83a6b08 	str	x8, [x24,x26]
    3c58:	94000562 	bl	51e0 <__write_chk@plt>
    3c5c:	b7f80240 	tbnz	x0, #63, 3ca4 <AMidiInputPort_sendWithTimestamp@@Base+0xf4>
    3c60:	aa0003e4 	mov	x4, x0
    3c64:	eb19001f 	cmp	x0, x25
    3c68:	5400010b 	b.lt	3c88 <AMidiInputPort_sendWithTimestamp@@Base+0xd8>
    3c6c:	8b040268 	add	x8, x19, x4
    3c70:	d1002513 	sub	x19, x8, #0x9
    3c74:	eb15027f 	cmp	x19, x21
    3c78:	54fffce3 	b.cc	3c14 <AMidiInputPort_sendWithTimestamp@@Base+0x64>
    3c7c:	1400000a 	b	3ca4 <AMidiInputPort_sendWithTimestamp@@Base+0xf4>
    3c80:	aa1f03f3 	mov	x19, xzr
    3c84:	14000008 	b	3ca4 <AMidiInputPort_sendWithTimestamp@@Base+0xf4>
    3c88:	f0ffffe1 	adrp	x1, 2000 <AMidiDevice_fromJava@@Base-0x1020>
    3c8c:	f0ffffe2 	adrp	x2, 2000 <AMidiDevice_fromJava@@Base-0x1020>
    3c90:	9102d021 	add	x1, x1, #0xb4
    3c94:	9108c442 	add	x2, x2, #0x231
    3c98:	321f07e0 	orr	w0, wzr, #0x6
    3c9c:	aa1903e3 	mov	x3, x25
    3ca0:	940004f4 	bl	5070 <__android_log_print@plt>
    3ca4:	f94003e9 	ldr	x9, [sp]
    3ca8:	f9401528 	ldr	x8, [x9,#40]
    3cac:	f85a03a9 	ldur	x9, [x29,#-96]
    3cb0:	eb09011f 	cmp	x8, x9
    3cb4:	54000141 	b.ne	3cdc <AMidiInputPort_sendWithTimestamp@@Base+0x12c>
    3cb8:	aa1303e0 	mov	x0, x19
    3cbc:	911083ff 	add	sp, sp, #0x420
    3cc0:	a9457bfd 	ldp	x29, x30, [sp,#80]
    3cc4:	a9444ff4 	ldp	x20, x19, [sp,#64]
    3cc8:	a94357f6 	ldp	x22, x21, [sp,#48]
    3ccc:	a9425ff8 	ldp	x24, x23, [sp,#32]
    3cd0:	a94167fa 	ldp	x26, x25, [sp,#16]
    3cd4:	a8c66ffc 	ldp	x28, x27, [sp],#96
    3cd8:	d65f03c0 	ret
    3cdc:	9400050d 	bl	5110 <__stack_chk_fail@plt>

0000000000003ce0 <AMidiInputPort_sendFlush@@Base>:
    3ce0:	d100c3ff 	sub	sp, sp, #0x30
    3ce4:	f9000bf3 	str	x19, [sp,#16]
    3ce8:	a9027bfd 	stp	x29, x30, [sp,#32]
    3cec:	910083fd 	add	x29, sp, #0x20
    3cf0:	d53bd053 	mrs	x19, tpidr_el0
    3cf4:	f9401668 	ldr	x8, [x19,#40]
    3cf8:	f90007e8 	str	x8, [sp,#8]
    3cfc:	b4000180 	cbz	x0, 3d2c <AMidiInputPort_sendFlush@@Base+0x4c>
    3d00:	b9401800 	ldr	w0, [x0,#24]
    3d04:	321f03e8 	orr	w8, wzr, #0x2
    3d08:	910013e1 	add	x1, sp, #0x4
    3d0c:	320003e2 	orr	w2, wzr, #0x1
    3d10:	320003e3 	orr	w3, wzr, #0x1
    3d14:	390013e8 	strb	w8, [sp,#4]
    3d18:	94000532 	bl	51e0 <__write_chk@plt>
    3d1c:	f100001f 	cmp	x0, #0x0
    3d20:	540000ad 	b.le	3d34 <AMidiInputPort_sendFlush@@Base+0x54>
    3d24:	2a1f03e0 	mov	w0, wzr
    3d28:	1400000c 	b	3d58 <AMidiInputPort_sendFlush@@Base+0x78>
    3d2c:	1284e260 	mov	w0, #0xffffd8ec            	// #-10004
    3d30:	1400000a 	b	3d58 <AMidiInputPort_sendFlush@@Base+0x78>
    3d34:	f0ffffe1 	adrp	x1, 2000 <AMidiDevice_fromJava@@Base-0x1020>
    3d38:	f0ffffe2 	adrp	x2, 2000 <AMidiDevice_fromJava@@Base-0x1020>
    3d3c:	aa0003e4 	mov	x4, x0
    3d40:	9102d021 	add	x1, x1, #0xb4
    3d44:	91057442 	add	x2, x2, #0x15d
    3d48:	321f07e0 	orr	w0, wzr, #0x6
    3d4c:	320003e3 	orr	w3, wzr, #0x1
    3d50:	940004c8 	bl	5070 <__android_log_print@plt>
    3d54:	1284e220 	mov	w0, #0xffffd8ee            	// #-10002
    3d58:	f9401668 	ldr	x8, [x19,#40]
    3d5c:	f94007e9 	ldr	x9, [sp,#8]
    3d60:	eb09011f 	cmp	x8, x9
    3d64:	540000a1 	b.ne	3d78 <AMidiInputPort_sendFlush@@Base+0x98>
    3d68:	a9427bfd 	ldp	x29, x30, [sp,#32]
    3d6c:	f9400bf3 	ldr	x19, [sp,#16]
    3d70:	9100c3ff 	add	sp, sp, #0x30
    3d74:	d65f03c0 	ret
    3d78:	940004e6 	bl	5110 <__stack_chk_fail@plt>
    3d7c:	00000000 	.inst	0x00000000 ; undefined
    3d80:	f81e0ff3 	str	x19, [sp,#-32]!
    3d84:	a9017bfd 	stp	x29, x30, [sp,#16]
    3d88:	910043fd 	add	x29, sp, #0x10
    3d8c:	90000028 	adrp	x8, 7000 <_ZN7android8String16C1EPKc@plt+0x1c70>
    3d90:	91008108 	add	x8, x8, #0x20
    3d94:	aa0003f3 	mov	x19, x0
    3d98:	f9000008 	str	x8, [x0]
    3d9c:	940004d5 	bl	50f0 <_ZN7android10VectorImpl13finish_vectorEv@plt>
    3da0:	a9417bfd 	ldp	x29, x30, [sp,#16]
    3da4:	aa1303e0 	mov	x0, x19
    3da8:	f84207f3 	ldr	x19, [sp],#32
    3dac:	140004d5 	b	5100 <_ZN7android10VectorImplD2Ev@plt>
    3db0:	f81e0ff3 	str	x19, [sp,#-32]!
    3db4:	a9017bfd 	stp	x29, x30, [sp,#16]
    3db8:	910043fd 	add	x29, sp, #0x10
    3dbc:	90000028 	adrp	x8, 7000 <_ZN7android8String16C1EPKc@plt+0x1c70>
    3dc0:	91008108 	add	x8, x8, #0x20
    3dc4:	aa0003f3 	mov	x19, x0
    3dc8:	f9000008 	str	x8, [x0]
    3dcc:	940004c9 	bl	50f0 <_ZN7android10VectorImpl13finish_vectorEv@plt>
    3dd0:	aa1303e0 	mov	x0, x19
    3dd4:	940004cb 	bl	5100 <_ZN7android10VectorImplD2Ev@plt>
    3dd8:	a9417bfd 	ldp	x29, x30, [sp,#16]
    3ddc:	aa1303e0 	mov	x0, x19
    3de0:	f84207f3 	ldr	x19, [sp],#32
    3de4:	140004cf 	b	5120 <_ZdlPv@plt>
    3de8:	a9be4ff4 	stp	x20, x19, [sp,#-32]!
    3dec:	a9017bfd 	stp	x29, x30, [sp,#16]
    3df0:	910043fd 	add	x29, sp, #0x10
    3df4:	b4000102 	cbz	x2, 3e14 <AMidiInputPort_sendFlush@@Base+0x134>
    3df8:	aa0203f3 	mov	x19, x2
    3dfc:	aa0103e0 	mov	x0, x1
    3e00:	d1000673 	sub	x19, x19, #0x1
    3e04:	91002014 	add	x20, x0, #0x8
    3e08:	940004fa 	bl	51f0 <_ZN7android8String16C1Ev@plt>
    3e0c:	aa1403e0 	mov	x0, x20
    3e10:	b5ffff93 	cbnz	x19, 3e00 <AMidiInputPort_sendFlush@@Base+0x120>
    3e14:	a9417bfd 	ldp	x29, x30, [sp,#16]
    3e18:	a8c24ff4 	ldp	x20, x19, [sp],#32
    3e1c:	d65f03c0 	ret
    3e20:	a9be4ff4 	stp	x20, x19, [sp,#-32]!
    3e24:	a9017bfd 	stp	x29, x30, [sp,#16]
    3e28:	910043fd 	add	x29, sp, #0x10
    3e2c:	b4000102 	cbz	x2, 3e4c <AMidiInputPort_sendFlush@@Base+0x16c>
    3e30:	aa0203f3 	mov	x19, x2
    3e34:	aa0103f4 	mov	x20, x1
    3e38:	aa1403e0 	mov	x0, x20
    3e3c:	d1000673 	sub	x19, x19, #0x1
    3e40:	940004f0 	bl	5200 <_ZN7android8String16D1Ev@plt>
    3e44:	91002294 	add	x20, x20, #0x8
    3e48:	b5ffff93 	cbnz	x19, 3e38 <AMidiInputPort_sendFlush@@Base+0x158>
    3e4c:	a9417bfd 	ldp	x29, x30, [sp,#16]
    3e50:	a8c24ff4 	ldp	x20, x19, [sp],#32
    3e54:	d65f03c0 	ret
    3e58:	f81d0ff5 	str	x21, [sp,#-48]!
    3e5c:	a9014ff4 	stp	x20, x19, [sp,#16]
    3e60:	a9027bfd 	stp	x29, x30, [sp,#32]
    3e64:	910083fd 	add	x29, sp, #0x20
    3e68:	b4000163 	cbz	x3, 3e94 <AMidiInputPort_sendFlush@@Base+0x1b4>
    3e6c:	aa0303f3 	mov	x19, x3
    3e70:	aa0203f4 	mov	x20, x2
    3e74:	aa0103f5 	mov	x21, x1
    3e78:	aa1503e0 	mov	x0, x21
    3e7c:	aa1403e1 	mov	x1, x20
    3e80:	d1000673 	sub	x19, x19, #0x1
    3e84:	940004e3 	bl	5210 <_ZN7android8String16C1ERKS0_@plt>
    3e88:	910022b5 	add	x21, x21, #0x8
    3e8c:	91002294 	add	x20, x20, #0x8
    3e90:	b5ffff53 	cbnz	x19, 3e78 <AMidiInputPort_sendFlush@@Base+0x198>
    3e94:	a9427bfd 	ldp	x29, x30, [sp,#32]
    3e98:	a9414ff4 	ldp	x20, x19, [sp,#16]
    3e9c:	f84307f5 	ldr	x21, [sp],#48
    3ea0:	d65f03c0 	ret
    3ea4:	00000000 	.inst	0x00000000 ; undefined
    3ea8:	f81d0ff5 	str	x21, [sp,#-48]!
    3eac:	a9014ff4 	stp	x20, x19, [sp,#16]
    3eb0:	a9027bfd 	stp	x29, x30, [sp,#32]
    3eb4:	910083fd 	add	x29, sp, #0x20
    3eb8:	b4000143 	cbz	x3, 3ee0 <AMidiInputPort_sendFlush@@Base+0x200>
    3ebc:	aa0303f3 	mov	x19, x3
    3ec0:	aa0203f4 	mov	x20, x2
    3ec4:	aa0103f5 	mov	x21, x1
    3ec8:	aa1503e0 	mov	x0, x21
    3ecc:	aa1403e1 	mov	x1, x20
    3ed0:	d1000673 	sub	x19, x19, #0x1
    3ed4:	940004cf 	bl	5210 <_ZN7android8String16C1ERKS0_@plt>
    3ed8:	910022b5 	add	x21, x21, #0x8
    3edc:	b5ffff73 	cbnz	x19, 3ec8 <AMidiInputPort_sendFlush@@Base+0x1e8>
    3ee0:	a9427bfd 	ldp	x29, x30, [sp,#32]
    3ee4:	a9414ff4 	ldp	x20, x19, [sp,#16]
    3ee8:	f84307f5 	ldr	x21, [sp],#48
    3eec:	d65f03c0 	ret
    3ef0:	a9bf7bfd 	stp	x29, x30, [sp,#-16]!
    3ef4:	910003fd 	mov	x29, sp
    3ef8:	aa0203e8 	mov	x8, x2
    3efc:	aa0103e0 	mov	x0, x1
    3f00:	aa0803e1 	mov	x1, x8
    3f04:	d37df062 	lsl	x2, x3, #3
    3f08:	940004c6 	bl	5220 <memmove@plt>
    3f0c:	a8c17bfd 	ldp	x29, x30, [sp],#16
    3f10:	d65f03c0 	ret
    3f14:	00000000 	.inst	0x00000000 ; undefined
    3f18:	f81e0ff3 	str	x19, [sp,#-32]!
    3f1c:	a9017bfd 	stp	x29, x30, [sp,#16]
    3f20:	910043fd 	add	x29, sp, #0x10
    3f24:	90000028 	adrp	x8, 7000 <_ZN7android8String16C1EPKc@plt+0x1c70>
    3f28:	aa0003f3 	mov	x19, x0
    3f2c:	f943c108 	ldr	x8, [x8,#1920]
    3f30:	f9408001 	ldr	x1, [x0,#256]
    3f34:	9103e000 	add	x0, x0, #0xf8
    3f38:	91004108 	add	x8, x8, #0x10
    3f3c:	f9000268 	str	x8, [x19]
    3f40:	94000022 	bl	3fc8 <AMidiInputPort_sendFlush@@Base+0x2e8>
    3f44:	f9407661 	ldr	x1, [x19,#232]
    3f48:	91038260 	add	x0, x19, #0xe0
    3f4c:	94000035 	bl	4020 <AMidiInputPort_sendFlush@@Base+0x340>
    3f50:	f9406a61 	ldr	x1, [x19,#208]
    3f54:	91032260 	add	x0, x19, #0xc8
    3f58:	94000056 	bl	40b0 <AMidiInputPort_sendFlush@@Base+0x3d0>
    3f5c:	f9405e61 	ldr	x1, [x19,#184]
    3f60:	9102c260 	add	x0, x19, #0xb0
    3f64:	94000053 	bl	40b0 <AMidiInputPort_sendFlush@@Base+0x3d0>
    3f68:	f9405261 	ldr	x1, [x19,#160]
    3f6c:	91026260 	add	x0, x19, #0x98
    3f70:	94000050 	bl	40b0 <AMidiInputPort_sendFlush@@Base+0x3d0>
    3f74:	f9404661 	ldr	x1, [x19,#136]
    3f78:	91020260 	add	x0, x19, #0x80
    3f7c:	94000063 	bl	4108 <AMidiInputPort_sendFlush@@Base+0x428>
    3f80:	f9403a61 	ldr	x1, [x19,#112]
    3f84:	9101a260 	add	x0, x19, #0x68
    3f88:	94000076 	bl	4160 <AMidiInputPort_sendFlush@@Base+0x480>
    3f8c:	f9402e61 	ldr	x1, [x19,#88]
    3f90:	91014260 	add	x0, x19, #0x50
    3f94:	94000089 	bl	41b8 <AMidiInputPort_sendFlush@@Base+0x4d8>
    3f98:	f9402261 	ldr	x1, [x19,#64]
    3f9c:	9100e260 	add	x0, x19, #0x38
    3fa0:	94000086 	bl	41b8 <AMidiInputPort_sendFlush@@Base+0x4d8>
    3fa4:	f9401661 	ldr	x1, [x19,#40]
    3fa8:	91008260 	add	x0, x19, #0x20
    3fac:	94000083 	bl	41b8 <AMidiInputPort_sendFlush@@Base+0x4d8>
    3fb0:	f9400a61 	ldr	x1, [x19,#16]
    3fb4:	91002260 	add	x0, x19, #0x8
    3fb8:	a9417bfd 	ldp	x29, x30, [sp,#16]
    3fbc:	f84207f3 	ldr	x19, [sp],#32
    3fc0:	1400007e 	b	41b8 <AMidiInputPort_sendFlush@@Base+0x4d8>
    3fc4:	00000000 	.inst	0x00000000 ; undefined
    3fc8:	b4000281 	cbz	x1, 4018 <AMidiInputPort_sendFlush@@Base+0x338>
    3fcc:	a9be4ff4 	stp	x20, x19, [sp,#-32]!
    3fd0:	a9017bfd 	stp	x29, x30, [sp,#16]
    3fd4:	910043fd 	add	x29, sp, #0x10
    3fd8:	aa0103f3 	mov	x19, x1
    3fdc:	f9400021 	ldr	x1, [x1]
    3fe0:	aa0003f4 	mov	x20, x0
    3fe4:	97fffff9 	bl	3fc8 <AMidiInputPort_sendFlush@@Base+0x2e8>
    3fe8:	f9400661 	ldr	x1, [x19,#8]
    3fec:	aa1403e0 	mov	x0, x20
    3ff0:	97fffff6 	bl	3fc8 <AMidiInputPort_sendFlush@@Base+0x2e8>
    3ff4:	9100a260 	add	x0, x19, #0x28
    3ff8:	91008274 	add	x20, x19, #0x20
    3ffc:	97ffffc7 	bl	3f18 <AMidiInputPort_sendFlush@@Base+0x238>
    4000:	aa1403e0 	mov	x0, x20
    4004:	9400047f 	bl	5200 <_ZN7android8String16D1Ev@plt>
    4008:	a9417bfd 	ldp	x29, x30, [sp,#16]
    400c:	aa1303e0 	mov	x0, x19
    4010:	a8c24ff4 	ldp	x20, x19, [sp],#32
    4014:	14000443 	b	5120 <_ZdlPv@plt>
    4018:	d65f03c0 	ret
    401c:	00000000 	.inst	0x00000000 ; undefined
    4020:	b4000301 	cbz	x1, 4080 <AMidiInputPort_sendFlush@@Base+0x3a0>
    4024:	f81d0ff5 	str	x21, [sp,#-48]!
    4028:	a9014ff4 	stp	x20, x19, [sp,#16]
    402c:	a9027bfd 	stp	x29, x30, [sp,#32]
    4030:	910083fd 	add	x29, sp, #0x20
    4034:	aa0103f3 	mov	x19, x1
    4038:	f9400021 	ldr	x1, [x1]
    403c:	aa0003f4 	mov	x20, x0
    4040:	97fffff8 	bl	4020 <AMidiInputPort_sendFlush@@Base+0x340>
    4044:	f9400661 	ldr	x1, [x19,#8]
    4048:	aa1403e0 	mov	x0, x20
    404c:	97fffff5 	bl	4020 <AMidiInputPort_sendFlush@@Base+0x340>
    4050:	f9401675 	ldr	x21, [x19,#40]
    4054:	b40001f5 	cbz	x21, 4090 <AMidiInputPort_sendFlush@@Base+0x3b0>
    4058:	f9401a74 	ldr	x20, [x19,#48]
    405c:	eb15029f 	cmp	x20, x21
    4060:	54000120 	b.eq	4084 <AMidiInputPort_sendFlush@@Base+0x3a4>
    4064:	d1002294 	sub	x20, x20, #0x8
    4068:	aa1403e0 	mov	x0, x20
    406c:	94000465 	bl	5200 <_ZN7android8String16D1Ev@plt>
    4070:	eb1402bf 	cmp	x21, x20
    4074:	54ffff81 	b.ne	4064 <AMidiInputPort_sendFlush@@Base+0x384>
    4078:	f9401660 	ldr	x0, [x19,#40]
    407c:	14000003 	b	4088 <AMidiInputPort_sendFlush@@Base+0x3a8>
    4080:	d65f03c0 	ret
    4084:	aa1503e0 	mov	x0, x21
    4088:	f9001a75 	str	x21, [x19,#48]
    408c:	94000425 	bl	5120 <_ZdlPv@plt>
    4090:	91008260 	add	x0, x19, #0x20
    4094:	9400045b 	bl	5200 <_ZN7android8String16D1Ev@plt>
    4098:	aa1303e0 	mov	x0, x19
    409c:	a9427bfd 	ldp	x29, x30, [sp,#32]
    40a0:	a9414ff4 	ldp	x20, x19, [sp,#16]
    40a4:	f84307f5 	ldr	x21, [sp],#48
    40a8:	1400041e 	b	5120 <_ZdlPv@plt>
    40ac:	00000000 	.inst	0x00000000 ; undefined
    40b0:	b40002a1 	cbz	x1, 4104 <AMidiInputPort_sendFlush@@Base+0x424>
    40b4:	a9be4ff4 	stp	x20, x19, [sp,#-32]!
    40b8:	a9017bfd 	stp	x29, x30, [sp,#16]
    40bc:	910043fd 	add	x29, sp, #0x10
    40c0:	aa0103f3 	mov	x19, x1
    40c4:	f9400021 	ldr	x1, [x1]
    40c8:	aa0003f4 	mov	x20, x0
    40cc:	97fffff9 	bl	40b0 <AMidiInputPort_sendFlush@@Base+0x3d0>
    40d0:	f9400661 	ldr	x1, [x19,#8]
    40d4:	aa1403e0 	mov	x0, x20
    40d8:	97fffff6 	bl	40b0 <AMidiInputPort_sendFlush@@Base+0x3d0>
    40dc:	f9401660 	ldr	x0, [x19,#40]
    40e0:	b4000060 	cbz	x0, 40ec <AMidiInputPort_sendFlush@@Base+0x40c>
    40e4:	f9001a60 	str	x0, [x19,#48]
    40e8:	9400040e 	bl	5120 <_ZdlPv@plt>
    40ec:	91008260 	add	x0, x19, #0x20
    40f0:	94000444 	bl	5200 <_ZN7android8String16D1Ev@plt>
    40f4:	a9417bfd 	ldp	x29, x30, [sp,#16]
    40f8:	aa1303e0 	mov	x0, x19
    40fc:	a8c24ff4 	ldp	x20, x19, [sp],#32
    4100:	14000408 	b	5120 <_ZdlPv@plt>
    4104:	d65f03c0 	ret
    4108:	b4000281 	cbz	x1, 4158 <AMidiInputPort_sendFlush@@Base+0x478>
    410c:	a9be4ff4 	stp	x20, x19, [sp,#-32]!
    4110:	a9017bfd 	stp	x29, x30, [sp,#16]
    4114:	910043fd 	add	x29, sp, #0x10
    4118:	aa0103f3 	mov	x19, x1
    411c:	f9400021 	ldr	x1, [x1]
    4120:	aa0003f4 	mov	x20, x0
    4124:	97fffff9 	bl	4108 <AMidiInputPort_sendFlush@@Base+0x428>
    4128:	f9400661 	ldr	x1, [x19,#8]
    412c:	aa1403e0 	mov	x0, x20
    4130:	97fffff6 	bl	4108 <AMidiInputPort_sendFlush@@Base+0x428>
    4134:	f9401660 	ldr	x0, [x19,#40]
    4138:	b4000040 	cbz	x0, 4140 <AMidiInputPort_sendFlush@@Base+0x460>
    413c:	940003f9 	bl	5120 <_ZdlPv@plt>
    4140:	91008260 	add	x0, x19, #0x20
    4144:	9400042f 	bl	5200 <_ZN7android8String16D1Ev@plt>
    4148:	a9417bfd 	ldp	x29, x30, [sp,#16]
    414c:	aa1303e0 	mov	x0, x19
    4150:	a8c24ff4 	ldp	x20, x19, [sp],#32
    4154:	140003f3 	b	5120 <_ZdlPv@plt>
    4158:	d65f03c0 	ret
    415c:	00000000 	.inst	0x00000000 ; undefined
    4160:	b4000281 	cbz	x1, 41b0 <AMidiInputPort_sendFlush@@Base+0x4d0>
    4164:	a9be4ff4 	stp	x20, x19, [sp,#-32]!
    4168:	a9017bfd 	stp	x29, x30, [sp,#16]
    416c:	910043fd 	add	x29, sp, #0x10
    4170:	aa0103f3 	mov	x19, x1
    4174:	f9400021 	ldr	x1, [x1]
    4178:	aa0003f4 	mov	x20, x0
    417c:	97fffff9 	bl	4160 <AMidiInputPort_sendFlush@@Base+0x480>
    4180:	f9400661 	ldr	x1, [x19,#8]
    4184:	aa1403e0 	mov	x0, x20
    4188:	97fffff6 	bl	4160 <AMidiInputPort_sendFlush@@Base+0x480>
    418c:	9100a260 	add	x0, x19, #0x28
    4190:	91008274 	add	x20, x19, #0x20
    4194:	9400041b 	bl	5200 <_ZN7android8String16D1Ev@plt>
    4198:	aa1403e0 	mov	x0, x20
    419c:	94000419 	bl	5200 <_ZN7android8String16D1Ev@plt>
    41a0:	a9417bfd 	ldp	x29, x30, [sp,#16]
    41a4:	aa1303e0 	mov	x0, x19
    41a8:	a8c24ff4 	ldp	x20, x19, [sp],#32
    41ac:	140003dd 	b	5120 <_ZdlPv@plt>
    41b0:	d65f03c0 	ret
    41b4:	00000000 	.inst	0x00000000 ; undefined
    41b8:	b4000221 	cbz	x1, 41fc <AMidiInputPort_sendFlush@@Base+0x51c>
    41bc:	a9be4ff4 	stp	x20, x19, [sp,#-32]!
    41c0:	a9017bfd 	stp	x29, x30, [sp,#16]
    41c4:	910043fd 	add	x29, sp, #0x10
    41c8:	aa0103f3 	mov	x19, x1
    41cc:	f9400021 	ldr	x1, [x1]
    41d0:	aa0003f4 	mov	x20, x0
    41d4:	97fffff9 	bl	41b8 <AMidiInputPort_sendFlush@@Base+0x4d8>
    41d8:	f9400661 	ldr	x1, [x19,#8]
    41dc:	aa1403e0 	mov	x0, x20
    41e0:	97fffff6 	bl	41b8 <AMidiInputPort_sendFlush@@Base+0x4d8>
    41e4:	91008260 	add	x0, x19, #0x20
    41e8:	94000406 	bl	5200 <_ZN7android8String16D1Ev@plt>
    41ec:	a9417bfd 	ldp	x29, x30, [sp,#16]
    41f0:	aa1303e0 	mov	x0, x19
    41f4:	a8c24ff4 	ldp	x20, x19, [sp],#32
    41f8:	140003ca 	b	5120 <_ZdlPv@plt>
    41fc:	d65f03c0 	ret
    4200:	a9bc5ff8 	stp	x24, x23, [sp,#-64]!
    4204:	a90157f6 	stp	x22, x21, [sp,#16]
    4208:	a9024ff4 	stp	x20, x19, [sp,#32]
    420c:	a9037bfd 	stp	x29, x30, [sp,#48]
    4210:	9100c3fd 	add	x29, sp, #0x30
    4214:	aa0203f6 	mov	x22, x2
    4218:	2a0103f4 	mov	w20, w1
    421c:	aa0003f5 	mov	x21, x0
    4220:	940003cc 	bl	5150 <__errno@plt>
    4224:	b94002b7 	ldr	w23, [x21]
    4228:	aa0003f3 	mov	x19, x0
    422c:	b9400018 	ldr	w24, [x0]
    4230:	310006ff 	cmn	w23, #0x1
    4234:	540001a0 	b.eq	4268 <AMidiInputPort_sendFlush@@Base+0x588>
    4238:	f0000008 	adrp	x8, 7000 <_ZN7android8String16C1EPKc@plt+0x1c70>
    423c:	f943c508 	ldr	x8, [x8,#1928]
    4240:	b4000108 	cbz	x8, 4260 <AMidiInputPort_sendFlush@@Base+0x580>
    4244:	320007e0 	orr	w0, wzr, #0x3
    4248:	aa1503e1 	mov	x1, x21
    424c:	940003c5 	bl	5160 <android_fdsan_create_owner_tag@plt>
    4250:	aa0003e1 	mov	x1, x0
    4254:	2a1703e0 	mov	w0, w23
    4258:	940003c6 	bl	5170 <android_fdsan_close_with_tag@plt>
    425c:	14000003 	b	4268 <AMidiInputPort_sendFlush@@Base+0x588>
    4260:	2a1703e0 	mov	w0, w23
    4264:	940003c7 	bl	5180 <close@plt>
    4268:	3100069f 	cmn	w20, #0x1
    426c:	b90002b4 	str	w20, [x21]
    4270:	540001e0 	b.eq	42ac <AMidiInputPort_sendFlush@@Base+0x5cc>
    4274:	f0000008 	adrp	x8, 7000 <_ZN7android8String16C1EPKc@plt+0x1c70>
    4278:	f943c908 	ldr	x8, [x8,#1936]
    427c:	b4000188 	cbz	x8, 42ac <AMidiInputPort_sendFlush@@Base+0x5cc>
    4280:	320007e0 	orr	w0, wzr, #0x3
    4284:	aa1603e1 	mov	x1, x22
    4288:	940003b6 	bl	5160 <android_fdsan_create_owner_tag@plt>
    428c:	aa0003f6 	mov	x22, x0
    4290:	320007e0 	orr	w0, wzr, #0x3
    4294:	aa1503e1 	mov	x1, x21
    4298:	940003b2 	bl	5160 <android_fdsan_create_owner_tag@plt>
    429c:	aa0003e2 	mov	x2, x0
    42a0:	2a1403e0 	mov	w0, w20
    42a4:	aa1603e1 	mov	x1, x22
    42a8:	940003e2 	bl	5230 <android_fdsan_exchange_owner_tag@plt>
    42ac:	b9000278 	str	w24, [x19]
    42b0:	a9437bfd 	ldp	x29, x30, [sp,#48]
    42b4:	a9424ff4 	ldp	x20, x19, [sp,#32]
    42b8:	a94157f6 	ldp	x22, x21, [sp,#16]
    42bc:	a8c45ff8 	ldp	x24, x23, [sp],#64
    42c0:	d65f03c0 	ret
    42c4:	00000000 	.inst	0x00000000 ; undefined
    42c8:	f0000000 	adrp	x0, 7000 <_ZN7android8String16C1EPKc@plt+0x1c70>
    42cc:	90000021 	adrp	x1, 8000 <__bss_start@@Base>
    42d0:	d0000002 	adrp	x2, 6000 <_ZN7android8String16C1EPKc@plt+0xc70>
    42d4:	f943cc00 	ldr	x0, [x0,#1944]
    42d8:	91000021 	add	x1, x1, #0x0
    42dc:	91000042 	add	x2, x2, #0x0
    42e0:	140003d8 	b	5240 <__cxa_atexit@plt>
    42e4:	00000000 	.inst	0x00000000 ; undefined
    42e8:	90000020 	adrp	x0, 8000 <__bss_start@@Base>
    42ec:	9100a000 	add	x0, x0, #0x28
    42f0:	d65f03c0 	ret
    42f4:	00000000 	.inst	0x00000000 ; undefined
    42f8:	f81d0ff5 	str	x21, [sp,#-48]!
    42fc:	a9014ff4 	stp	x20, x19, [sp,#16]
    4300:	a9027bfd 	stp	x29, x30, [sp,#32]
    4304:	910083fd 	add	x29, sp, #0x20
    4308:	aa0003f4 	mov	x20, x0
    430c:	9100a000 	add	x0, x0, #0x28
    4310:	aa0103f3 	mov	x19, x1
    4314:	940003cf 	bl	5250 <_ZN7android7RefBaseC2Ev@plt>
    4318:	f0000015 	adrp	x21, 7000 <_ZN7android8String16C1EPKc@plt+0x1c70>
    431c:	910642b5 	add	x21, x21, #0x190
    4320:	aa1403e0 	mov	x0, x20
    4324:	aa1503e1 	mov	x1, x21
    4328:	940003ce 	bl	5260 <_ZN7android10IInterfaceC2Ev@plt>
    432c:	f0000008 	adrp	x8, 7000 <_ZN7android8String16C1EPKc@plt+0x1c70>
    4330:	aa1403e0 	mov	x0, x20
    4334:	910c2108 	add	x8, x8, #0x308
    4338:	910062a1 	add	x1, x21, #0x18
    433c:	aa1303e2 	mov	x2, x19
    4340:	f8008408 	str	x8, [x0],#8
    4344:	91024108 	add	x8, x8, #0x90
    4348:	f9001688 	str	x8, [x20,#40]
    434c:	940003c9 	bl	5270 <_ZN7android9BpRefBaseC2ERKNS_2spINS_7IBinderEEE@plt>
    4350:	f0000008 	adrp	x8, 7000 <_ZN7android8String16C1EPKc@plt+0x1c70>
    4354:	9101e108 	add	x8, x8, #0x78
    4358:	9101c109 	add	x9, x8, #0x70
    435c:	9e670100 	fmov	d0, x8
    4360:	91034108 	add	x8, x8, #0xd0
    4364:	f9001688 	str	x8, [x20,#40]
    4368:	4e181d20 	mov	v0.d[1], x9
    436c:	3d800280 	str	q0, [x20]
    4370:	a9427bfd 	ldp	x29, x30, [sp,#32]
    4374:	a9414ff4 	ldp	x20, x19, [sp,#16]
    4378:	f84307f5 	ldr	x21, [sp],#48
    437c:	d65f03c0 	ret
    4380:	aa0003e8 	mov	x8, x0
    4384:	f9400000 	ldr	x0, [x0]
    4388:	f900011f 	str	xzr, [x8]
    438c:	b4000080 	cbz	x0, 439c <AMidiInputPort_sendFlush@@Base+0x6bc>
    4390:	f9400008 	ldr	x8, [x0]
    4394:	f9400501 	ldr	x1, [x8,#8]
    4398:	d61f0020 	br	x1
    439c:	d65f03c0 	ret
    43a0:	d4200020 	brk	#0x1
    43a4:	00000000 	.inst	0x00000000 ; undefined
    43a8:	d10583ff 	sub	sp, sp, #0x160
    43ac:	a91167fc 	stp	x28, x25, [sp,#272]
    43b0:	a9125ff8 	stp	x24, x23, [sp,#288]
    43b4:	a91357f6 	stp	x22, x21, [sp,#304]
    43b8:	a9144ff4 	stp	x20, x19, [sp,#320]
    43bc:	a9157bfd 	stp	x29, x30, [sp,#336]
    43c0:	910543fd 	add	x29, sp, #0x150
    43c4:	d53bd059 	mrs	x25, tpidr_el0
    43c8:	aa0003f8 	mov	x24, x0
    43cc:	f9401729 	ldr	x9, [x25,#40]
    43d0:	910243e0 	add	x0, sp, #0x90
    43d4:	aa0303f5 	mov	x21, x3
    43d8:	2a0203f6 	mov	w22, w2
    43dc:	aa0103f7 	mov	x23, x1
    43e0:	aa0803f4 	mov	x20, x8
    43e4:	f81b83a9 	stur	x9, [x29,#-72]
    43e8:	940003a6 	bl	5280 <_ZN7android6ParcelC1Ev@plt>
    43ec:	910063e0 	add	x0, sp, #0x18
    43f0:	940003a4 	bl	5280 <_ZN7android6ParcelC1Ev@plt>
    43f4:	910023e8 	add	x8, sp, #0x8
    43f8:	f90007ff 	str	xzr, [sp,#8]
    43fc:	91002113 	add	x19, x8, #0x8
    4400:	aa1303e0 	mov	x0, x19
    4404:	940003a3 	bl	5290 <_ZN7android7String8C1Ev@plt>
    4408:	f9400308 	ldr	x8, [x24]
    440c:	aa1803e0 	mov	x0, x24
    4410:	f9400d08 	ldr	x8, [x8,#24]
    4414:	d63f0100 	blr	x8
    4418:	aa0003e1 	mov	x1, x0
    441c:	910243e0 	add	x0, sp, #0x90
    4420:	940003a0 	bl	52a0 <_ZN7android6Parcel19writeInterfaceTokenERKNS_8String16E@plt>
    4424:	2a0003e1 	mov	w1, w0
    4428:	35000160 	cbnz	w0, 4454 <AMidiInputPort_sendFlush@@Base+0x774>
    442c:	910243e0 	add	x0, sp, #0x90
    4430:	aa1703e1 	mov	x1, x23
    4434:	9400039f 	bl	52b0 <_ZN7android6Parcel17writeStrongBinderERKNS_2spINS_7IBinderEEE@plt>
    4438:	2a0003e1 	mov	w1, w0
    443c:	350000c0 	cbnz	w0, 4454 <AMidiInputPort_sendFlush@@Base+0x774>
    4440:	910243e0 	add	x0, sp, #0x90
    4444:	2a1603e1 	mov	w1, w22
    4448:	9400039e 	bl	52c0 <_ZN7android6Parcel10writeInt32Ei@plt>
    444c:	2a0003e1 	mov	w1, w0
    4450:	34000320 	cbz	w0, 44b4 <AMidiInputPort_sendFlush@@Base+0x7d4>
    4454:	910023e0 	add	x0, sp, #0x8
    4458:	9400039e 	bl	52d0 <_ZN7android6binder6Status14setFromStatusTEi@plt>
    445c:	f94007e8 	ldr	x8, [sp,#8]
    4460:	aa1303e1 	mov	x1, x19
    4464:	f8008688 	str	x8, [x20],#8
    4468:	aa1403e0 	mov	x0, x20
    446c:	9400039d 	bl	52e0 <_ZN7android7String8C1ERKS0_@plt>
    4470:	aa1303e0 	mov	x0, x19
    4474:	9400031b 	bl	50e0 <_ZN7android7String8D1Ev@plt>
    4478:	910063e0 	add	x0, sp, #0x18
    447c:	9400039d 	bl	52f0 <_ZN7android6ParcelD1Ev@plt>
    4480:	910243e0 	add	x0, sp, #0x90
    4484:	9400039b 	bl	52f0 <_ZN7android6ParcelD1Ev@plt>
    4488:	f9401728 	ldr	x8, [x25,#40]
    448c:	f85b83a9 	ldur	x9, [x29,#-72]
    4490:	eb09011f 	cmp	x8, x9
    4494:	540005a1 	b.ne	4548 <AMidiInputPort_sendFlush@@Base+0x868>
    4498:	a9557bfd 	ldp	x29, x30, [sp,#336]
    449c:	a9544ff4 	ldp	x20, x19, [sp,#320]
    44a0:	a95357f6 	ldp	x22, x21, [sp,#304]
    44a4:	a9525ff8 	ldp	x24, x23, [sp,#288]
    44a8:	a95167fc 	ldp	x28, x25, [sp,#272]
    44ac:	910583ff 	add	sp, sp, #0x160
    44b0:	d65f03c0 	ret
    44b4:	f9400b00 	ldr	x0, [x24,#16]
    44b8:	910243e2 	add	x2, sp, #0x90
    44bc:	910063e3 	add	x3, sp, #0x18
    44c0:	320003e1 	orr	w1, wzr, #0x1
    44c4:	2a1f03e4 	mov	w4, wzr
    44c8:	f9400008 	ldr	x8, [x0]
    44cc:	f9401508 	ldr	x8, [x8,#40]
    44d0:	d63f0100 	blr	x8
    44d4:	34000120 	cbz	w0, 44f8 <AMidiInputPort_sendFlush@@Base+0x818>
    44d8:	2a0003e1 	mov	w1, w0
    44dc:	3101281f 	cmn	w0, #0x4a
    44e0:	54fffba1 	b.ne	4454 <AMidiInputPort_sendFlush@@Base+0x774>
    44e4:	90000028 	adrp	x8, 8000 <__bss_start@@Base>
    44e8:	f9401900 	ldr	x0, [x8,#48]
    44ec:	b50001e0 	cbnz	x0, 4528 <AMidiInputPort_sendFlush@@Base+0x848>
    44f0:	12800921 	mov	w1, #0xffffffb6            	// #-74
    44f4:	17ffffd8 	b	4454 <AMidiInputPort_sendFlush@@Base+0x774>
    44f8:	910023e0 	add	x0, sp, #0x8
    44fc:	910063e1 	add	x1, sp, #0x18
    4500:	94000380 	bl	5300 <_ZN7android6binder6Status14readFromParcelERKNS_6ParcelE@plt>
    4504:	2a0003e1 	mov	w1, w0
    4508:	35fffa60 	cbnz	w0, 4454 <AMidiInputPort_sendFlush@@Base+0x774>
    450c:	b9400be8 	ldr	w8, [sp,#8]
    4510:	35fffa68 	cbnz	w8, 445c <AMidiInputPort_sendFlush@@Base+0x77c>
    4514:	910063e0 	add	x0, sp, #0x18
    4518:	aa1503e1 	mov	x1, x21
    451c:	9400037d 	bl	5310 <_ZNK7android6Parcel24readUniqueFileDescriptorEPNS_4base14unique_fd_implINS1_13DefaultCloserEEE@plt>
    4520:	2a0003e1 	mov	w1, w0
    4524:	17ffffcc 	b	4454 <AMidiInputPort_sendFlush@@Base+0x774>
    4528:	f9400008 	ldr	x8, [x0]
    452c:	aa1703e1 	mov	x1, x23
    4530:	2a1603e2 	mov	w2, w22
    4534:	aa1503e3 	mov	x3, x21
    4538:	f9401109 	ldr	x9, [x8,#32]
    453c:	aa1403e8 	mov	x8, x20
    4540:	d63f0120 	blr	x9
    4544:	17ffffcb 	b	4470 <AMidiInputPort_sendFlush@@Base+0x790>
    4548:	940002f2 	bl	5110 <__stack_chk_fail@plt>
    454c:	00000000 	.inst	0x00000000 ; undefined
    4550:	d10583ff 	sub	sp, sp, #0x160
    4554:	a91167fc 	stp	x28, x25, [sp,#272]
    4558:	a9125ff8 	stp	x24, x23, [sp,#288]
    455c:	a91357f6 	stp	x22, x21, [sp,#304]
    4560:	a9144ff4 	stp	x20, x19, [sp,#320]
    4564:	a9157bfd 	stp	x29, x30, [sp,#336]
    4568:	910543fd 	add	x29, sp, #0x150
    456c:	d53bd059 	mrs	x25, tpidr_el0
    4570:	aa0003f8 	mov	x24, x0
    4574:	f9401729 	ldr	x9, [x25,#40]
    4578:	910243e0 	add	x0, sp, #0x90
    457c:	aa0303f5 	mov	x21, x3
    4580:	2a0203f6 	mov	w22, w2
    4584:	aa0103f7 	mov	x23, x1
    4588:	aa0803f4 	mov	x20, x8
    458c:	f81b83a9 	stur	x9, [x29,#-72]
    4590:	9400033c 	bl	5280 <_ZN7android6ParcelC1Ev@plt>
    4594:	910063e0 	add	x0, sp, #0x18
    4598:	9400033a 	bl	5280 <_ZN7android6ParcelC1Ev@plt>
    459c:	910023e8 	add	x8, sp, #0x8
    45a0:	f90007ff 	str	xzr, [sp,#8]
    45a4:	91002113 	add	x19, x8, #0x8
    45a8:	aa1303e0 	mov	x0, x19
    45ac:	94000339 	bl	5290 <_ZN7android7String8C1Ev@plt>
    45b0:	f9400308 	ldr	x8, [x24]
    45b4:	aa1803e0 	mov	x0, x24
    45b8:	f9400d08 	ldr	x8, [x8,#24]
    45bc:	d63f0100 	blr	x8
    45c0:	aa0003e1 	mov	x1, x0
    45c4:	910243e0 	add	x0, sp, #0x90
    45c8:	94000336 	bl	52a0 <_ZN7android6Parcel19writeInterfaceTokenERKNS_8String16E@plt>
    45cc:	2a0003e1 	mov	w1, w0
    45d0:	35000160 	cbnz	w0, 45fc <AMidiInputPort_sendFlush@@Base+0x91c>
    45d4:	910243e0 	add	x0, sp, #0x90
    45d8:	aa1703e1 	mov	x1, x23
    45dc:	94000335 	bl	52b0 <_ZN7android6Parcel17writeStrongBinderERKNS_2spINS_7IBinderEEE@plt>
    45e0:	2a0003e1 	mov	w1, w0
    45e4:	350000c0 	cbnz	w0, 45fc <AMidiInputPort_sendFlush@@Base+0x91c>
    45e8:	910243e0 	add	x0, sp, #0x90
    45ec:	2a1603e1 	mov	w1, w22
    45f0:	94000334 	bl	52c0 <_ZN7android6Parcel10writeInt32Ei@plt>
    45f4:	2a0003e1 	mov	w1, w0
    45f8:	34000320 	cbz	w0, 465c <AMidiInputPort_sendFlush@@Base+0x97c>
    45fc:	910023e0 	add	x0, sp, #0x8
    4600:	94000334 	bl	52d0 <_ZN7android6binder6Status14setFromStatusTEi@plt>
    4604:	f94007e8 	ldr	x8, [sp,#8]
    4608:	aa1303e1 	mov	x1, x19
    460c:	f8008688 	str	x8, [x20],#8
    4610:	aa1403e0 	mov	x0, x20
    4614:	94000333 	bl	52e0 <_ZN7android7String8C1ERKS0_@plt>
    4618:	aa1303e0 	mov	x0, x19
    461c:	940002b1 	bl	50e0 <_ZN7android7String8D1Ev@plt>
    4620:	910063e0 	add	x0, sp, #0x18
    4624:	94000333 	bl	52f0 <_ZN7android6ParcelD1Ev@plt>
    4628:	910243e0 	add	x0, sp, #0x90
    462c:	94000331 	bl	52f0 <_ZN7android6ParcelD1Ev@plt>
    4630:	f9401728 	ldr	x8, [x25,#40]
    4634:	f85b83a9 	ldur	x9, [x29,#-72]
    4638:	eb09011f 	cmp	x8, x9
    463c:	540005a1 	b.ne	46f0 <AMidiInputPort_sendFlush@@Base+0xa10>
    4640:	a9557bfd 	ldp	x29, x30, [sp,#336]
    4644:	a9544ff4 	ldp	x20, x19, [sp,#320]
    4648:	a95357f6 	ldp	x22, x21, [sp,#304]
    464c:	a9525ff8 	ldp	x24, x23, [sp,#288]
    4650:	a95167fc 	ldp	x28, x25, [sp,#272]
    4654:	910583ff 	add	sp, sp, #0x160
    4658:	d65f03c0 	ret
    465c:	f9400b00 	ldr	x0, [x24,#16]
    4660:	910243e2 	add	x2, sp, #0x90
    4664:	910063e3 	add	x3, sp, #0x18
    4668:	321f03e1 	orr	w1, wzr, #0x2
    466c:	2a1f03e4 	mov	w4, wzr
    4670:	f9400008 	ldr	x8, [x0]
    4674:	f9401508 	ldr	x8, [x8,#40]
    4678:	d63f0100 	blr	x8
    467c:	34000120 	cbz	w0, 46a0 <AMidiInputPort_sendFlush@@Base+0x9c0>
    4680:	2a0003e1 	mov	w1, w0
    4684:	3101281f 	cmn	w0, #0x4a
    4688:	54fffba1 	b.ne	45fc <AMidiInputPort_sendFlush@@Base+0x91c>
    468c:	90000028 	adrp	x8, 8000 <__bss_start@@Base>
    4690:	f9401900 	ldr	x0, [x8,#48]
    4694:	b50001e0 	cbnz	x0, 46d0 <AMidiInputPort_sendFlush@@Base+0x9f0>
    4698:	12800921 	mov	w1, #0xffffffb6            	// #-74
    469c:	17ffffd8 	b	45fc <AMidiInputPort_sendFlush@@Base+0x91c>
    46a0:	910023e0 	add	x0, sp, #0x8
    46a4:	910063e1 	add	x1, sp, #0x18
    46a8:	94000316 	bl	5300 <_ZN7android6binder6Status14readFromParcelERKNS_6ParcelE@plt>
    46ac:	2a0003e1 	mov	w1, w0
    46b0:	35fffa60 	cbnz	w0, 45fc <AMidiInputPort_sendFlush@@Base+0x91c>
    46b4:	b9400be8 	ldr	w8, [sp,#8]
    46b8:	35fffa68 	cbnz	w8, 4604 <AMidiInputPort_sendFlush@@Base+0x924>
    46bc:	910063e0 	add	x0, sp, #0x18
    46c0:	aa1503e1 	mov	x1, x21
    46c4:	94000313 	bl	5310 <_ZNK7android6Parcel24readUniqueFileDescriptorEPNS_4base14unique_fd_implINS1_13DefaultCloserEEE@plt>
    46c8:	2a0003e1 	mov	w1, w0
    46cc:	17ffffcc 	b	45fc <AMidiInputPort_sendFlush@@Base+0x91c>
    46d0:	f9400008 	ldr	x8, [x0]
    46d4:	aa1703e1 	mov	x1, x23
    46d8:	2a1603e2 	mov	w2, w22
    46dc:	aa1503e3 	mov	x3, x21
    46e0:	f9401509 	ldr	x9, [x8,#40]
    46e4:	aa1403e8 	mov	x8, x20
    46e8:	d63f0120 	blr	x9
    46ec:	17ffffcb 	b	4618 <AMidiInputPort_sendFlush@@Base+0x938>
    46f0:	94000288 	bl	5110 <__stack_chk_fail@plt>
    46f4:	00000000 	.inst	0x00000000 ; undefined
    46f8:	d10543ff 	sub	sp, sp, #0x150
    46fc:	a9115ffc 	stp	x28, x23, [sp,#272]
    4700:	a91257f6 	stp	x22, x21, [sp,#288]
    4704:	a9134ff4 	stp	x20, x19, [sp,#304]
    4708:	a9147bfd 	stp	x29, x30, [sp,#320]
    470c:	910503fd 	add	x29, sp, #0x140
    4710:	d53bd057 	mrs	x23, tpidr_el0
    4714:	aa0003f6 	mov	x22, x0
    4718:	f94016e9 	ldr	x9, [x23,#40]
    471c:	910243e0 	add	x0, sp, #0x90
    4720:	aa0103f5 	mov	x21, x1
    4724:	aa0803f4 	mov	x20, x8
    4728:	f81c83a9 	stur	x9, [x29,#-56]
    472c:	940002d5 	bl	5280 <_ZN7android6ParcelC1Ev@plt>
    4730:	910063e0 	add	x0, sp, #0x18
    4734:	940002d3 	bl	5280 <_ZN7android6ParcelC1Ev@plt>
    4738:	910023e8 	add	x8, sp, #0x8
    473c:	f90007ff 	str	xzr, [sp,#8]
    4740:	91002113 	add	x19, x8, #0x8
    4744:	aa1303e0 	mov	x0, x19
    4748:	940002d2 	bl	5290 <_ZN7android7String8C1Ev@plt>
    474c:	f94002c8 	ldr	x8, [x22]
    4750:	aa1603e0 	mov	x0, x22
    4754:	f9400d08 	ldr	x8, [x8,#24]
    4758:	d63f0100 	blr	x8
    475c:	aa0003e1 	mov	x1, x0
    4760:	910243e0 	add	x0, sp, #0x90
    4764:	940002cf 	bl	52a0 <_ZN7android6Parcel19writeInterfaceTokenERKNS_8String16E@plt>
    4768:	2a0003e1 	mov	w1, w0
    476c:	350000c0 	cbnz	w0, 4784 <AMidiInputPort_sendFlush@@Base+0xaa4>
    4770:	910243e0 	add	x0, sp, #0x90
    4774:	aa1503e1 	mov	x1, x21
    4778:	940002ce 	bl	52b0 <_ZN7android6Parcel17writeStrongBinderERKNS_2spINS_7IBinderEEE@plt>
    477c:	2a0003e1 	mov	w1, w0
    4780:	34000300 	cbz	w0, 47e0 <AMidiInputPort_sendFlush@@Base+0xb00>
    4784:	910023e0 	add	x0, sp, #0x8
    4788:	940002d2 	bl	52d0 <_ZN7android6binder6Status14setFromStatusTEi@plt>
    478c:	f94007e8 	ldr	x8, [sp,#8]
    4790:	aa1303e1 	mov	x1, x19
    4794:	f8008688 	str	x8, [x20],#8
    4798:	aa1403e0 	mov	x0, x20
    479c:	940002d1 	bl	52e0 <_ZN7android7String8C1ERKS0_@plt>
    47a0:	aa1303e0 	mov	x0, x19
    47a4:	9400024f 	bl	50e0 <_ZN7android7String8D1Ev@plt>
    47a8:	910063e0 	add	x0, sp, #0x18
    47ac:	940002d1 	bl	52f0 <_ZN7android6ParcelD1Ev@plt>
    47b0:	910243e0 	add	x0, sp, #0x90
    47b4:	940002cf 	bl	52f0 <_ZN7android6ParcelD1Ev@plt>
    47b8:	f94016e8 	ldr	x8, [x23,#40]
    47bc:	f85c83a9 	ldur	x9, [x29,#-56]
    47c0:	eb09011f 	cmp	x8, x9
    47c4:	540004e1 	b.ne	4860 <AMidiInputPort_sendFlush@@Base+0xb80>
    47c8:	a9547bfd 	ldp	x29, x30, [sp,#320]
    47cc:	a9534ff4 	ldp	x20, x19, [sp,#304]
    47d0:	a95257f6 	ldp	x22, x21, [sp,#288]
    47d4:	a9515ffc 	ldp	x28, x23, [sp,#272]
    47d8:	910543ff 	add	sp, sp, #0x150
    47dc:	d65f03c0 	ret
    47e0:	f9400ac0 	ldr	x0, [x22,#16]
    47e4:	910243e2 	add	x2, sp, #0x90
    47e8:	910063e3 	add	x3, sp, #0x18
    47ec:	320007e1 	orr	w1, wzr, #0x3
    47f0:	2a1f03e4 	mov	w4, wzr
    47f4:	f9400008 	ldr	x8, [x0]
    47f8:	f9401508 	ldr	x8, [x8,#40]
    47fc:	d63f0100 	blr	x8
    4800:	34000120 	cbz	w0, 4824 <AMidiInputPort_sendFlush@@Base+0xb44>
    4804:	2a0003e1 	mov	w1, w0
    4808:	3101281f 	cmn	w0, #0x4a
    480c:	54fffbc1 	b.ne	4784 <AMidiInputPort_sendFlush@@Base+0xaa4>
    4810:	90000028 	adrp	x8, 8000 <__bss_start@@Base>
    4814:	f9401900 	ldr	x0, [x8,#48]
    4818:	b5000180 	cbnz	x0, 4848 <AMidiInputPort_sendFlush@@Base+0xb68>
    481c:	12800921 	mov	w1, #0xffffffb6            	// #-74
    4820:	17ffffd9 	b	4784 <AMidiInputPort_sendFlush@@Base+0xaa4>
    4824:	910023e0 	add	x0, sp, #0x8
    4828:	910063e1 	add	x1, sp, #0x18
    482c:	940002b5 	bl	5300 <_ZN7android6binder6Status14readFromParcelERKNS_6ParcelE@plt>
    4830:	2a0003e1 	mov	w1, w0
    4834:	35fffa80 	cbnz	w0, 4784 <AMidiInputPort_sendFlush@@Base+0xaa4>
    4838:	b9400be8 	ldr	w8, [sp,#8]
    483c:	35fffa88 	cbnz	w8, 478c <AMidiInputPort_sendFlush@@Base+0xaac>
    4840:	2a1f03e1 	mov	w1, wzr
    4844:	17ffffd0 	b	4784 <AMidiInputPort_sendFlush@@Base+0xaa4>
    4848:	f9400008 	ldr	x8, [x0]
    484c:	aa1503e1 	mov	x1, x21
    4850:	f9401909 	ldr	x9, [x8,#48]
    4854:	aa1403e8 	mov	x8, x20
    4858:	d63f0120 	blr	x9
    485c:	17ffffd1 	b	47a0 <AMidiInputPort_sendFlush@@Base+0xac0>
    4860:	9400022c 	bl	5110 <__stack_chk_fail@plt>
    4864:	00000000 	.inst	0x00000000 ; undefined
    4868:	d10543ff 	sub	sp, sp, #0x150
    486c:	f9008bfc 	str	x28, [sp,#272]
    4870:	a91257f6 	stp	x22, x21, [sp,#288]
    4874:	a9134ff4 	stp	x20, x19, [sp,#304]
    4878:	a9147bfd 	stp	x29, x30, [sp,#320]
    487c:	910503fd 	add	x29, sp, #0x140
    4880:	d53bd056 	mrs	x22, tpidr_el0
    4884:	aa0003f5 	mov	x21, x0
    4888:	f94016c9 	ldr	x9, [x22,#40]
    488c:	910243e0 	add	x0, sp, #0x90
    4890:	aa0803f3 	mov	x19, x8
    4894:	f81c83a9 	stur	x9, [x29,#-56]
    4898:	9400027a 	bl	5280 <_ZN7android6ParcelC1Ev@plt>
    489c:	910063e0 	add	x0, sp, #0x18
    48a0:	94000278 	bl	5280 <_ZN7android6ParcelC1Ev@plt>
    48a4:	910023e8 	add	x8, sp, #0x8
    48a8:	f90007ff 	str	xzr, [sp,#8]
    48ac:	91002114 	add	x20, x8, #0x8
    48b0:	aa1403e0 	mov	x0, x20
    48b4:	94000277 	bl	5290 <_ZN7android7String8C1Ev@plt>
    48b8:	f94002a8 	ldr	x8, [x21]
    48bc:	aa1503e0 	mov	x0, x21
    48c0:	f9400d08 	ldr	x8, [x8,#24]
    48c4:	d63f0100 	blr	x8
    48c8:	aa0003e1 	mov	x1, x0
    48cc:	910243e0 	add	x0, sp, #0x90
    48d0:	94000274 	bl	52a0 <_ZN7android6Parcel19writeInterfaceTokenERKNS_8String16E@plt>
    48d4:	2a0003e1 	mov	w1, w0
    48d8:	35000200 	cbnz	w0, 4918 <AMidiInputPort_sendFlush@@Base+0xc38>
    48dc:	f9400aa0 	ldr	x0, [x21,#16]
    48e0:	910243e2 	add	x2, sp, #0x90
    48e4:	910063e3 	add	x3, sp, #0x18
    48e8:	321e03e1 	orr	w1, wzr, #0x4
    48ec:	320003e4 	orr	w4, wzr, #0x1
    48f0:	f9400008 	ldr	x8, [x0]
    48f4:	f9401508 	ldr	x8, [x8,#40]
    48f8:	d63f0100 	blr	x8
    48fc:	2a0003e1 	mov	w1, w0
    4900:	3101281f 	cmn	w0, #0x4a
    4904:	540000a1 	b.ne	4918 <AMidiInputPort_sendFlush@@Base+0xc38>
    4908:	90000028 	adrp	x8, 8000 <__bss_start@@Base>
    490c:	f9401900 	ldr	x0, [x8,#48]
    4910:	b5000320 	cbnz	x0, 4974 <AMidiInputPort_sendFlush@@Base+0xc94>
    4914:	12800921 	mov	w1, #0xffffffb6            	// #-74
    4918:	910023e0 	add	x0, sp, #0x8
    491c:	9400026d 	bl	52d0 <_ZN7android6binder6Status14setFromStatusTEi@plt>
    4920:	f94007e8 	ldr	x8, [sp,#8]
    4924:	aa1403e1 	mov	x1, x20
    4928:	f8008668 	str	x8, [x19],#8
    492c:	aa1303e0 	mov	x0, x19
    4930:	9400026c 	bl	52e0 <_ZN7android7String8C1ERKS0_@plt>
    4934:	aa1403e0 	mov	x0, x20
    4938:	940001ea 	bl	50e0 <_ZN7android7String8D1Ev@plt>
    493c:	910063e0 	add	x0, sp, #0x18
    4940:	9400026c 	bl	52f0 <_ZN7android6ParcelD1Ev@plt>
    4944:	910243e0 	add	x0, sp, #0x90
    4948:	9400026a 	bl	52f0 <_ZN7android6ParcelD1Ev@plt>
    494c:	f94016c8 	ldr	x8, [x22,#40]
    4950:	f85c83a9 	ldur	x9, [x29,#-56]
    4954:	eb09011f 	cmp	x8, x9
    4958:	54000181 	b.ne	4988 <AMidiInputPort_sendFlush@@Base+0xca8>
    495c:	a9547bfd 	ldp	x29, x30, [sp,#320]
    4960:	a9534ff4 	ldp	x20, x19, [sp,#304]
    4964:	a95257f6 	ldp	x22, x21, [sp,#288]
    4968:	f9408bfc 	ldr	x28, [sp,#272]
    496c:	910543ff 	add	sp, sp, #0x150
    4970:	d65f03c0 	ret
    4974:	f9400008 	ldr	x8, [x0]
    4978:	f9401d09 	ldr	x9, [x8,#56]
    497c:	aa1303e8 	mov	x8, x19
    4980:	d63f0120 	blr	x9
    4984:	17ffffec 	b	4934 <AMidiInputPort_sendFlush@@Base+0xc54>
    4988:	940001e2 	bl	5110 <__stack_chk_fail@plt>
    498c:	00000000 	.inst	0x00000000 ; undefined
    4990:	d105c3ff 	sub	sp, sp, #0x170
    4994:	f9008bfc 	str	x28, [sp,#272]
    4998:	a91267fa 	stp	x26, x25, [sp,#288]
    499c:	a9135ff8 	stp	x24, x23, [sp,#304]
    49a0:	a91457f6 	stp	x22, x21, [sp,#320]
    49a4:	a9154ff4 	stp	x20, x19, [sp,#336]
    49a8:	a9167bfd 	stp	x29, x30, [sp,#352]
    49ac:	910583fd 	add	x29, sp, #0x160
    49b0:	d53bd05a 	mrs	x26, tpidr_el0
    49b4:	aa0003f9 	mov	x25, x0
    49b8:	f9401749 	ldr	x9, [x26,#40]
    49bc:	910243e0 	add	x0, sp, #0x90
    49c0:	aa0403f5 	mov	x21, x4
    49c4:	2a0303f6 	mov	w22, w3
    49c8:	aa0203f7 	mov	x23, x2
    49cc:	aa0103f8 	mov	x24, x1
    49d0:	f81a83a9 	stur	x9, [x29,#-88]
    49d4:	aa0803f4 	mov	x20, x8
    49d8:	9400022a 	bl	5280 <_ZN7android6ParcelC1Ev@plt>
    49dc:	910063e0 	add	x0, sp, #0x18
    49e0:	94000228 	bl	5280 <_ZN7android6ParcelC1Ev@plt>
    49e4:	910023e8 	add	x8, sp, #0x8
    49e8:	f90007ff 	str	xzr, [sp,#8]
    49ec:	91002113 	add	x19, x8, #0x8
    49f0:	aa1303e0 	mov	x0, x19
    49f4:	94000227 	bl	5290 <_ZN7android7String8C1Ev@plt>
    49f8:	f9400328 	ldr	x8, [x25]
    49fc:	aa1903e0 	mov	x0, x25
    4a00:	f9400d08 	ldr	x8, [x8,#24]
    4a04:	d63f0100 	blr	x8
    4a08:	aa0003e1 	mov	x1, x0
    4a0c:	910243e0 	add	x0, sp, #0x90
    4a10:	94000224 	bl	52a0 <_ZN7android6Parcel19writeInterfaceTokenERKNS_8String16E@plt>
    4a14:	2a0003e1 	mov	w1, w0
    4a18:	35000200 	cbnz	w0, 4a58 <AMidiInputPort_sendFlush@@Base+0xd78>
    4a1c:	910243e0 	add	x0, sp, #0x90
    4a20:	aa1803e1 	mov	x1, x24
    4a24:	94000223 	bl	52b0 <_ZN7android6Parcel17writeStrongBinderERKNS_2spINS_7IBinderEEE@plt>
    4a28:	2a0003e1 	mov	w1, w0
    4a2c:	35000160 	cbnz	w0, 4a58 <AMidiInputPort_sendFlush@@Base+0xd78>
    4a30:	910243e0 	add	x0, sp, #0x90
    4a34:	aa1703e1 	mov	x1, x23
    4a38:	9400023a 	bl	5320 <_ZN7android6Parcel25writeUniqueFileDescriptorERKNS_4base14unique_fd_implINS1_13DefaultCloserEEE@plt>
    4a3c:	2a0003e1 	mov	w1, w0
    4a40:	350000c0 	cbnz	w0, 4a58 <AMidiInputPort_sendFlush@@Base+0xd78>
    4a44:	910243e0 	add	x0, sp, #0x90
    4a48:	2a1603e1 	mov	w1, w22
    4a4c:	9400021d 	bl	52c0 <_ZN7android6Parcel10writeInt32Ei@plt>
    4a50:	2a0003e1 	mov	w1, w0
    4a54:	34000340 	cbz	w0, 4abc <AMidiInputPort_sendFlush@@Base+0xddc>
    4a58:	910023e0 	add	x0, sp, #0x8
    4a5c:	9400021d 	bl	52d0 <_ZN7android6binder6Status14setFromStatusTEi@plt>
    4a60:	f94007e8 	ldr	x8, [sp,#8]
    4a64:	aa1303e1 	mov	x1, x19
    4a68:	f8008688 	str	x8, [x20],#8
    4a6c:	aa1403e0 	mov	x0, x20
    4a70:	9400021c 	bl	52e0 <_ZN7android7String8C1ERKS0_@plt>
    4a74:	aa1303e0 	mov	x0, x19
    4a78:	9400019a 	bl	50e0 <_ZN7android7String8D1Ev@plt>
    4a7c:	910063e0 	add	x0, sp, #0x18
    4a80:	9400021c 	bl	52f0 <_ZN7android6ParcelD1Ev@plt>
    4a84:	910243e0 	add	x0, sp, #0x90
    4a88:	9400021a 	bl	52f0 <_ZN7android6ParcelD1Ev@plt>
    4a8c:	f9401748 	ldr	x8, [x26,#40]
    4a90:	f85a83a9 	ldur	x9, [x29,#-88]
    4a94:	eb09011f 	cmp	x8, x9
    4a98:	540005e1 	b.ne	4b54 <AMidiInputPort_sendFlush@@Base+0xe74>
    4a9c:	a9567bfd 	ldp	x29, x30, [sp,#352]
    4aa0:	a9554ff4 	ldp	x20, x19, [sp,#336]
    4aa4:	a95457f6 	ldp	x22, x21, [sp,#320]
    4aa8:	a9535ff8 	ldp	x24, x23, [sp,#304]
    4aac:	a95267fa 	ldp	x26, x25, [sp,#288]
    4ab0:	f9408bfc 	ldr	x28, [sp,#272]
    4ab4:	9105c3ff 	add	sp, sp, #0x170
    4ab8:	d65f03c0 	ret
    4abc:	f9400b20 	ldr	x0, [x25,#16]
    4ac0:	528000a1 	mov	w1, #0x5                   	// #5
    4ac4:	910243e2 	add	x2, sp, #0x90
    4ac8:	910063e3 	add	x3, sp, #0x18
    4acc:	2a1f03e4 	mov	w4, wzr
    4ad0:	f9400008 	ldr	x8, [x0]
    4ad4:	f9401508 	ldr	x8, [x8,#40]
    4ad8:	d63f0100 	blr	x8
    4adc:	34000120 	cbz	w0, 4b00 <AMidiInputPort_sendFlush@@Base+0xe20>
    4ae0:	2a0003e1 	mov	w1, w0
    4ae4:	3101281f 	cmn	w0, #0x4a
    4ae8:	54fffb81 	b.ne	4a58 <AMidiInputPort_sendFlush@@Base+0xd78>
    4aec:	90000028 	adrp	x8, 8000 <__bss_start@@Base>
    4af0:	f9401900 	ldr	x0, [x8,#48]
    4af4:	b50001e0 	cbnz	x0, 4b30 <AMidiInputPort_sendFlush@@Base+0xe50>
    4af8:	12800921 	mov	w1, #0xffffffb6            	// #-74
    4afc:	17ffffd7 	b	4a58 <AMidiInputPort_sendFlush@@Base+0xd78>
    4b00:	910023e0 	add	x0, sp, #0x8
    4b04:	910063e1 	add	x1, sp, #0x18
    4b08:	940001fe 	bl	5300 <_ZN7android6binder6Status14readFromParcelERKNS_6ParcelE@plt>
    4b0c:	2a0003e1 	mov	w1, w0
    4b10:	35fffa40 	cbnz	w0, 4a58 <AMidiInputPort_sendFlush@@Base+0xd78>
    4b14:	b9400be8 	ldr	w8, [sp,#8]
    4b18:	35fffa48 	cbnz	w8, 4a60 <AMidiInputPort_sendFlush@@Base+0xd80>
    4b1c:	910063e0 	add	x0, sp, #0x18
    4b20:	aa1503e1 	mov	x1, x21
    4b24:	94000203 	bl	5330 <_ZNK7android6Parcel9readInt32EPi@plt>
    4b28:	2a0003e1 	mov	w1, w0
    4b2c:	17ffffcb 	b	4a58 <AMidiInputPort_sendFlush@@Base+0xd78>
    4b30:	f9400008 	ldr	x8, [x0]
    4b34:	aa1803e1 	mov	x1, x24
    4b38:	aa1703e2 	mov	x2, x23
    4b3c:	2a1603e3 	mov	w3, w22
    4b40:	aa1503e4 	mov	x4, x21
    4b44:	f9402109 	ldr	x9, [x8,#64]
    4b48:	aa1403e8 	mov	x8, x20
    4b4c:	d63f0120 	blr	x9
    4b50:	17ffffc9 	b	4a74 <AMidiInputPort_sendFlush@@Base+0xd94>
    4b54:	9400016f 	bl	5110 <__stack_chk_fail@plt>
    4b58:	d10543ff 	sub	sp, sp, #0x150
    4b5c:	a9115ffc 	stp	x28, x23, [sp,#272]
    4b60:	a91257f6 	stp	x22, x21, [sp,#288]
    4b64:	a9134ff4 	stp	x20, x19, [sp,#304]
    4b68:	a9147bfd 	stp	x29, x30, [sp,#320]
    4b6c:	910503fd 	add	x29, sp, #0x140
    4b70:	d53bd057 	mrs	x23, tpidr_el0
    4b74:	aa0003f6 	mov	x22, x0
    4b78:	f94016e9 	ldr	x9, [x23,#40]
    4b7c:	910243e0 	add	x0, sp, #0x90
    4b80:	aa0103f5 	mov	x21, x1
    4b84:	aa0803f4 	mov	x20, x8
    4b88:	f81c83a9 	stur	x9, [x29,#-56]
    4b8c:	940001bd 	bl	5280 <_ZN7android6ParcelC1Ev@plt>
    4b90:	910063e0 	add	x0, sp, #0x18
    4b94:	940001bb 	bl	5280 <_ZN7android6ParcelC1Ev@plt>
    4b98:	910023e8 	add	x8, sp, #0x8
    4b9c:	f90007ff 	str	xzr, [sp,#8]
    4ba0:	91002113 	add	x19, x8, #0x8
    4ba4:	aa1303e0 	mov	x0, x19
    4ba8:	940001ba 	bl	5290 <_ZN7android7String8C1Ev@plt>
    4bac:	f94002c8 	ldr	x8, [x22]
    4bb0:	aa1603e0 	mov	x0, x22
    4bb4:	f9400d08 	ldr	x8, [x8,#24]
    4bb8:	d63f0100 	blr	x8
    4bbc:	aa0003e1 	mov	x1, x0
    4bc0:	910243e0 	add	x0, sp, #0x90
    4bc4:	940001b7 	bl	52a0 <_ZN7android6Parcel19writeInterfaceTokenERKNS_8String16E@plt>
    4bc8:	2a0003e1 	mov	w1, w0
    4bcc:	34000300 	cbz	w0, 4c2c <AMidiInputPort_sendFlush@@Base+0xf4c>
    4bd0:	910023e0 	add	x0, sp, #0x8
    4bd4:	940001bf 	bl	52d0 <_ZN7android6binder6Status14setFromStatusTEi@plt>
    4bd8:	f94007e8 	ldr	x8, [sp,#8]
    4bdc:	aa1303e1 	mov	x1, x19
    4be0:	f8008688 	str	x8, [x20],#8
    4be4:	aa1403e0 	mov	x0, x20
    4be8:	940001be 	bl	52e0 <_ZN7android7String8C1ERKS0_@plt>
    4bec:	aa1303e0 	mov	x0, x19
    4bf0:	9400013c 	bl	50e0 <_ZN7android7String8D1Ev@plt>
    4bf4:	910063e0 	add	x0, sp, #0x18
    4bf8:	940001be 	bl	52f0 <_ZN7android6ParcelD1Ev@plt>
    4bfc:	910243e0 	add	x0, sp, #0x90
    4c00:	940001bc 	bl	52f0 <_ZN7android6ParcelD1Ev@plt>
    4c04:	f94016e8 	ldr	x8, [x23,#40]
    4c08:	f85c83a9 	ldur	x9, [x29,#-56]
    4c0c:	eb09011f 	cmp	x8, x9
    4c10:	54000541 	b.ne	4cb8 <AMidiInputPort_sendFlush@@Base+0xfd8>
    4c14:	a9547bfd 	ldp	x29, x30, [sp,#320]
    4c18:	a9534ff4 	ldp	x20, x19, [sp,#304]
    4c1c:	a95257f6 	ldp	x22, x21, [sp,#288]
    4c20:	a9515ffc 	ldp	x28, x23, [sp,#272]
    4c24:	910543ff 	add	sp, sp, #0x150
    4c28:	d65f03c0 	ret
    4c2c:	f9400ac0 	ldr	x0, [x22,#16]
    4c30:	910243e2 	add	x2, sp, #0x90
    4c34:	910063e3 	add	x3, sp, #0x18
    4c38:	321f07e1 	orr	w1, wzr, #0x6
    4c3c:	2a1f03e4 	mov	w4, wzr
    4c40:	f9400008 	ldr	x8, [x0]
    4c44:	f9401508 	ldr	x8, [x8,#40]
    4c48:	d63f0100 	blr	x8
    4c4c:	34000120 	cbz	w0, 4c70 <AMidiInputPort_sendFlush@@Base+0xf90>
    4c50:	2a0003e1 	mov	w1, w0
    4c54:	3101281f 	cmn	w0, #0x4a
    4c58:	54fffbc1 	b.ne	4bd0 <AMidiInputPort_sendFlush@@Base+0xef0>
    4c5c:	90000028 	adrp	x8, 8000 <__bss_start@@Base>
    4c60:	f9401900 	ldr	x0, [x8,#48]
    4c64:	b50001e0 	cbnz	x0, 4ca0 <AMidiInputPort_sendFlush@@Base+0xfc0>
    4c68:	12800921 	mov	w1, #0xffffffb6            	// #-74
    4c6c:	17ffffd9 	b	4bd0 <AMidiInputPort_sendFlush@@Base+0xef0>
    4c70:	910023e0 	add	x0, sp, #0x8
    4c74:	910063e1 	add	x1, sp, #0x18
    4c78:	940001a2 	bl	5300 <_ZN7android6binder6Status14readFromParcelERKNS_6ParcelE@plt>
    4c7c:	2a0003e1 	mov	w1, w0
    4c80:	35fffa80 	cbnz	w0, 4bd0 <AMidiInputPort_sendFlush@@Base+0xef0>
    4c84:	b9400be8 	ldr	w8, [sp,#8]
    4c88:	35fffa88 	cbnz	w8, 4bd8 <AMidiInputPort_sendFlush@@Base+0xef8>
    4c8c:	910063e0 	add	x0, sp, #0x18
    4c90:	aa1503e1 	mov	x1, x21
    4c94:	940001ab 	bl	5340 <_ZNK7android6Parcel14readParcelableEPNS_10ParcelableE@plt>
    4c98:	2a0003e1 	mov	w1, w0
    4c9c:	17ffffcd 	b	4bd0 <AMidiInputPort_sendFlush@@Base+0xef0>
    4ca0:	f9400008 	ldr	x8, [x0]
    4ca4:	aa1503e1 	mov	x1, x21
    4ca8:	f9402509 	ldr	x9, [x8,#72]
    4cac:	aa1403e8 	mov	x8, x20
    4cb0:	d63f0120 	blr	x9
    4cb4:	17ffffce 	b	4bec <AMidiInputPort_sendFlush@@Base+0xf0c>
    4cb8:	94000116 	bl	5110 <__stack_chk_fail@plt>
    4cbc:	00000000 	.inst	0x00000000 ; undefined
    4cc0:	d10543ff 	sub	sp, sp, #0x150
    4cc4:	a9115ffc 	stp	x28, x23, [sp,#272]
    4cc8:	a91257f6 	stp	x22, x21, [sp,#288]
    4ccc:	a9134ff4 	stp	x20, x19, [sp,#304]
    4cd0:	a9147bfd 	stp	x29, x30, [sp,#320]
    4cd4:	910503fd 	add	x29, sp, #0x140
    4cd8:	d53bd057 	mrs	x23, tpidr_el0
    4cdc:	aa0003f6 	mov	x22, x0
    4ce0:	f94016e9 	ldr	x9, [x23,#40]
    4ce4:	910243e0 	add	x0, sp, #0x90
    4ce8:	aa0103f5 	mov	x21, x1
    4cec:	aa0803f3 	mov	x19, x8
    4cf0:	f81c83a9 	stur	x9, [x29,#-56]
    4cf4:	94000163 	bl	5280 <_ZN7android6ParcelC1Ev@plt>
    4cf8:	910063e0 	add	x0, sp, #0x18
    4cfc:	94000161 	bl	5280 <_ZN7android6ParcelC1Ev@plt>
    4d00:	910023e8 	add	x8, sp, #0x8
    4d04:	f90007ff 	str	xzr, [sp,#8]
    4d08:	91002114 	add	x20, x8, #0x8
    4d0c:	aa1403e0 	mov	x0, x20
    4d10:	94000160 	bl	5290 <_ZN7android7String8C1Ev@plt>
    4d14:	f94002c8 	ldr	x8, [x22]
    4d18:	aa1603e0 	mov	x0, x22
    4d1c:	f9400d08 	ldr	x8, [x8,#24]
    4d20:	d63f0100 	blr	x8
    4d24:	aa0003e1 	mov	x1, x0
    4d28:	910243e0 	add	x0, sp, #0x90
    4d2c:	9400015d 	bl	52a0 <_ZN7android6Parcel19writeInterfaceTokenERKNS_8String16E@plt>
    4d30:	2a0003e1 	mov	w1, w0
    4d34:	350002a0 	cbnz	w0, 4d88 <AMidiInputPort_sendFlush@@Base+0x10a8>
    4d38:	910243e0 	add	x0, sp, #0x90
    4d3c:	aa1503e1 	mov	x1, x21
    4d40:	94000184 	bl	5350 <_ZN7android6Parcel15writeParcelableERKNS_10ParcelableE@plt>
    4d44:	2a0003e1 	mov	w1, w0
    4d48:	35000200 	cbnz	w0, 4d88 <AMidiInputPort_sendFlush@@Base+0x10a8>
    4d4c:	f9400ac0 	ldr	x0, [x22,#16]
    4d50:	910243e2 	add	x2, sp, #0x90
    4d54:	910063e3 	add	x3, sp, #0x18
    4d58:	32000be1 	orr	w1, wzr, #0x7
    4d5c:	320003e4 	orr	w4, wzr, #0x1
    4d60:	f9400008 	ldr	x8, [x0]
    4d64:	f9401508 	ldr	x8, [x8,#40]
    4d68:	d63f0100 	blr	x8
    4d6c:	2a0003e1 	mov	w1, w0
    4d70:	3101281f 	cmn	w0, #0x4a
    4d74:	540000a1 	b.ne	4d88 <AMidiInputPort_sendFlush@@Base+0x10a8>
    4d78:	90000028 	adrp	x8, 8000 <__bss_start@@Base>
    4d7c:	f9401900 	ldr	x0, [x8,#48]
    4d80:	b5000320 	cbnz	x0, 4de4 <AMidiInputPort_sendFlush@@Base+0x1104>
    4d84:	12800921 	mov	w1, #0xffffffb6            	// #-74
    4d88:	910023e0 	add	x0, sp, #0x8
    4d8c:	94000151 	bl	52d0 <_ZN7android6binder6Status14setFromStatusTEi@plt>
    4d90:	f94007e8 	ldr	x8, [sp,#8]
    4d94:	aa1403e1 	mov	x1, x20
    4d98:	f8008668 	str	x8, [x19],#8
    4d9c:	aa1303e0 	mov	x0, x19
    4da0:	94000150 	bl	52e0 <_ZN7android7String8C1ERKS0_@plt>
    4da4:	aa1403e0 	mov	x0, x20
    4da8:	940000ce 	bl	50e0 <_ZN7android7String8D1Ev@plt>
    4dac:	910063e0 	add	x0, sp, #0x18
    4db0:	94000150 	bl	52f0 <_ZN7android6ParcelD1Ev@plt>
    4db4:	910243e0 	add	x0, sp, #0x90
    4db8:	9400014e 	bl	52f0 <_ZN7android6ParcelD1Ev@plt>
    4dbc:	f94016e8 	ldr	x8, [x23,#40]
    4dc0:	f85c83a9 	ldur	x9, [x29,#-56]
    4dc4:	eb09011f 	cmp	x8, x9
    4dc8:	540001a1 	b.ne	4dfc <AMidiInputPort_sendFlush@@Base+0x111c>
    4dcc:	a9547bfd 	ldp	x29, x30, [sp,#320]
    4dd0:	a9534ff4 	ldp	x20, x19, [sp,#304]
    4dd4:	a95257f6 	ldp	x22, x21, [sp,#288]
    4dd8:	a9515ffc 	ldp	x28, x23, [sp,#272]
    4ddc:	910543ff 	add	sp, sp, #0x150
    4de0:	d65f03c0 	ret
    4de4:	f9400008 	ldr	x8, [x0]
    4de8:	aa1503e1 	mov	x1, x21
    4dec:	f9402909 	ldr	x9, [x8,#80]
    4df0:	aa1303e8 	mov	x8, x19
    4df4:	d63f0120 	blr	x9
    4df8:	17ffffeb 	b	4da4 <AMidiInputPort_sendFlush@@Base+0x10c4>
    4dfc:	940000c5 	bl	5110 <__stack_chk_fail@plt>
    4e00:	f9400800 	ldr	x0, [x0,#16]
    4e04:	d65f03c0 	ret
    4e08:	a9be4ff4 	stp	x20, x19, [sp,#-32]!
    4e0c:	a9017bfd 	stp	x29, x30, [sp,#16]
    4e10:	910043fd 	add	x29, sp, #0x10
    4e14:	f0000014 	adrp	x20, 7000 <_ZN7android8String16C1EPKc@plt+0x1c70>
    4e18:	91064294 	add	x20, x20, #0x190
    4e1c:	aa0003f3 	mov	x19, x0
    4e20:	91002000 	add	x0, x0, #0x8
    4e24:	91006281 	add	x1, x20, #0x18
    4e28:	9400014e 	bl	5360 <_ZN7android9BpRefBaseD2Ev@plt>
    4e2c:	aa1303e0 	mov	x0, x19
    4e30:	aa1403e1 	mov	x1, x20
    4e34:	9400014f 	bl	5370 <_ZN7android10IInterfaceD2Ev@plt>
    4e38:	a9417bfd 	ldp	x29, x30, [sp,#16]
    4e3c:	9100a260 	add	x0, x19, #0x28
    4e40:	a8c24ff4 	ldp	x20, x19, [sp],#32
    4e44:	1400014f 	b	5380 <_ZN7android7RefBaseD2Ev@plt>
    4e48:	a9be4ff4 	stp	x20, x19, [sp,#-32]!
    4e4c:	a9017bfd 	stp	x29, x30, [sp,#16]
    4e50:	910043fd 	add	x29, sp, #0x10
    4e54:	f0000014 	adrp	x20, 7000 <_ZN7android8String16C1EPKc@plt+0x1c70>
    4e58:	91064294 	add	x20, x20, #0x190
    4e5c:	aa0003f3 	mov	x19, x0
    4e60:	91002000 	add	x0, x0, #0x8
    4e64:	91006281 	add	x1, x20, #0x18
    4e68:	9400013e 	bl	5360 <_ZN7android9BpRefBaseD2Ev@plt>
    4e6c:	aa1303e0 	mov	x0, x19
    4e70:	aa1403e1 	mov	x1, x20
    4e74:	9400013f 	bl	5370 <_ZN7android10IInterfaceD2Ev@plt>
    4e78:	9100a260 	add	x0, x19, #0x28
    4e7c:	94000141 	bl	5380 <_ZN7android7RefBaseD2Ev@plt>
    4e80:	a9417bfd 	ldp	x29, x30, [sp,#16]
    4e84:	aa1303e0 	mov	x0, x19
    4e88:	a8c24ff4 	ldp	x20, x19, [sp],#32
    4e8c:	140000a5 	b	5120 <_ZdlPv@plt>
    4e90:	f81d0ff5 	str	x21, [sp,#-48]!
    4e94:	a9014ff4 	stp	x20, x19, [sp,#16]
    4e98:	a9027bfd 	stp	x29, x30, [sp,#32]
    4e9c:	910083fd 	add	x29, sp, #0x20
    4ea0:	f0000015 	adrp	x21, 7000 <_ZN7android8String16C1EPKc@plt+0x1c70>
    4ea4:	910642b5 	add	x21, x21, #0x190
    4ea8:	910062a1 	add	x1, x21, #0x18
    4eac:	aa0003f3 	mov	x19, x0
    4eb0:	d1002014 	sub	x20, x0, #0x8
    4eb4:	9400012b 	bl	5360 <_ZN7android9BpRefBaseD2Ev@plt>
    4eb8:	aa1403e0 	mov	x0, x20
    4ebc:	aa1503e1 	mov	x1, x21
    4ec0:	9400012c 	bl	5370 <_ZN7android10IInterfaceD2Ev@plt>
    4ec4:	91008260 	add	x0, x19, #0x20
    4ec8:	a9427bfd 	ldp	x29, x30, [sp,#32]
    4ecc:	a9414ff4 	ldp	x20, x19, [sp,#16]
    4ed0:	f84307f5 	ldr	x21, [sp],#48
    4ed4:	1400012b 	b	5380 <_ZN7android7RefBaseD2Ev@plt>
    4ed8:	f81d0ff5 	str	x21, [sp,#-48]!
    4edc:	a9014ff4 	stp	x20, x19, [sp,#16]
    4ee0:	a9027bfd 	stp	x29, x30, [sp,#32]
    4ee4:	910083fd 	add	x29, sp, #0x20
    4ee8:	f0000015 	adrp	x21, 7000 <_ZN7android8String16C1EPKc@plt+0x1c70>
    4eec:	910642b5 	add	x21, x21, #0x190
    4ef0:	910062a1 	add	x1, x21, #0x18
    4ef4:	aa0003f3 	mov	x19, x0
    4ef8:	d1002014 	sub	x20, x0, #0x8
    4efc:	94000119 	bl	5360 <_ZN7android9BpRefBaseD2Ev@plt>
    4f00:	aa1403e0 	mov	x0, x20
    4f04:	aa1503e1 	mov	x1, x21
    4f08:	9400011a 	bl	5370 <_ZN7android10IInterfaceD2Ev@plt>
    4f0c:	91008260 	add	x0, x19, #0x20
    4f10:	9400011c 	bl	5380 <_ZN7android7RefBaseD2Ev@plt>
    4f14:	aa1403e0 	mov	x0, x20
    4f18:	a9427bfd 	ldp	x29, x30, [sp,#32]
    4f1c:	a9414ff4 	ldp	x20, x19, [sp,#16]
    4f20:	f84307f5 	ldr	x21, [sp],#48
    4f24:	1400007f 	b	5120 <_ZdlPv@plt>
    4f28:	a9be4ff4 	stp	x20, x19, [sp,#-32]!
    4f2c:	a9017bfd 	stp	x29, x30, [sp,#16]
    4f30:	910043fd 	add	x29, sp, #0x10
    4f34:	f9400008 	ldr	x8, [x0]
    4f38:	f0000014 	adrp	x20, 7000 <_ZN7android8String16C1EPKc@plt+0x1c70>
    4f3c:	91064294 	add	x20, x20, #0x190
    4f40:	91006281 	add	x1, x20, #0x18
    4f44:	f85e8108 	ldur	x8, [x8,#-24]
    4f48:	8b080013 	add	x19, x0, x8
    4f4c:	91002260 	add	x0, x19, #0x8
    4f50:	94000104 	bl	5360 <_ZN7android9BpRefBaseD2Ev@plt>
    4f54:	aa1303e0 	mov	x0, x19
    4f58:	aa1403e1 	mov	x1, x20
    4f5c:	94000105 	bl	5370 <_ZN7android10IInterfaceD2Ev@plt>
    4f60:	a9417bfd 	ldp	x29, x30, [sp,#16]
    4f64:	9100a260 	add	x0, x19, #0x28
    4f68:	a8c24ff4 	ldp	x20, x19, [sp],#32
    4f6c:	14000105 	b	5380 <_ZN7android7RefBaseD2Ev@plt>
    4f70:	a9be4ff4 	stp	x20, x19, [sp,#-32]!
    4f74:	a9017bfd 	stp	x29, x30, [sp,#16]
    4f78:	910043fd 	add	x29, sp, #0x10
    4f7c:	f9400008 	ldr	x8, [x0]
    4f80:	f0000014 	adrp	x20, 7000 <_ZN7android8String16C1EPKc@plt+0x1c70>
    4f84:	91064294 	add	x20, x20, #0x190
    4f88:	91006281 	add	x1, x20, #0x18
    4f8c:	f85e8108 	ldur	x8, [x8,#-24]
    4f90:	8b080013 	add	x19, x0, x8
    4f94:	91002260 	add	x0, x19, #0x8
    4f98:	940000f2 	bl	5360 <_ZN7android9BpRefBaseD2Ev@plt>
    4f9c:	aa1303e0 	mov	x0, x19
    4fa0:	aa1403e1 	mov	x1, x20
    4fa4:	940000f3 	bl	5370 <_ZN7android10IInterfaceD2Ev@plt>
    4fa8:	9100a260 	add	x0, x19, #0x28
    4fac:	940000f5 	bl	5380 <_ZN7android7RefBaseD2Ev@plt>
    4fb0:	a9417bfd 	ldp	x29, x30, [sp,#16]
    4fb4:	aa1303e0 	mov	x0, x19
    4fb8:	a8c24ff4 	ldp	x20, x19, [sp],#32
    4fbc:	14000059 	b	5120 <_ZdlPv@plt>
    4fc0:	a9be4ff4 	stp	x20, x19, [sp,#-32]!
    4fc4:	a9017bfd 	stp	x29, x30, [sp,#16]
    4fc8:	910043fd 	add	x29, sp, #0x10
    4fcc:	90000033 	adrp	x19, 8000 <__bss_start@@Base>
    4fd0:	9100a273 	add	x19, x19, #0x28
    4fd4:	d0ffffe1 	adrp	x1, 2000 <AMidiDevice_fromJava@@Base-0x1020>
    4fd8:	91083021 	add	x1, x1, #0x20c
    4fdc:	aa1303e0 	mov	x0, x19
    4fe0:	940000ec 	bl	5390 <_ZN7android8String16C1EPKc@plt>
    4fe4:	f0000000 	adrp	x0, 7000 <_ZN7android8String16C1EPKc@plt+0x1c70>
    4fe8:	d0000014 	adrp	x20, 6000 <_ZN7android8String16C1EPKc@plt+0xc70>
    4fec:	91000294 	add	x20, x20, #0x0
    4ff0:	f943d000 	ldr	x0, [x0,#1952]
    4ff4:	aa1303e1 	mov	x1, x19
    4ff8:	aa1403e2 	mov	x2, x20
    4ffc:	94000091 	bl	5240 <__cxa_atexit@plt>
    5000:	a9417bfd 	ldp	x29, x30, [sp,#16]
    5004:	f0ffffe0 	adrp	x0, 4000 <AMidiInputPort_sendFlush@@Base+0x320>
    5008:	f0000001 	adrp	x1, 8000 <__bss_start@@Base>
    500c:	910e0000 	add	x0, x0, #0x380
    5010:	9100c021 	add	x1, x1, #0x30
    5014:	aa1403e2 	mov	x2, x20
    5018:	a8c24ff4 	ldp	x20, x19, [sp],#32
    501c:	14000089 	b	5240 <__cxa_atexit@plt>

Disassembly of section .plt:

0000000000005020 <__cxa_finalize@plt-0x20>:
    5020:	a9bf7bf0 	stp	x16, x30, [sp,#-16]!
    5024:	d0000010 	adrp	x16, 7000 <_ZN7android8String16C1EPKc@plt+0x1c70>
    5028:	f943de11 	ldr	x17, [x16,#1976]
    502c:	911ee210 	add	x16, x16, #0x7b8
    5030:	d61f0220 	br	x17
    5034:	d503201f 	nop
    5038:	d503201f 	nop
    503c:	d503201f 	nop

0000000000005040 <__cxa_finalize@plt>:
    5040:	d0000010 	adrp	x16, 7000 <_ZN7android8String16C1EPKc@plt+0x1c70>
    5044:	f943e211 	ldr	x17, [x16,#1984]
    5048:	911f0210 	add	x16, x16, #0x7c0
    504c:	d61f0220 	br	x17

0000000000005050 <_ZNSt3__15mutex4lockEv@plt>:
    5050:	d0000010 	adrp	x16, 7000 <_ZN7android8String16C1EPKc@plt+0x1c70>
    5054:	f943e611 	ldr	x17, [x16,#1992]
    5058:	911f2210 	add	x16, x16, #0x7c8
    505c:	d61f0220 	br	x17

0000000000005060 <_ZNSt3__15mutex6unlockEv@plt>:
    5060:	d0000010 	adrp	x16, 7000 <_ZN7android8String16C1EPKc@plt+0x1c70>
    5064:	f943ea11 	ldr	x17, [x16,#2000]
    5068:	911f4210 	add	x16, x16, #0x7d0
    506c:	d61f0220 	br	x17

0000000000005070 <__android_log_print@plt>:
    5070:	d0000010 	adrp	x16, 7000 <_ZN7android8String16C1EPKc@plt+0x1c70>
    5074:	f943ee11 	ldr	x17, [x16,#2008]
    5078:	911f6210 	add	x16, x16, #0x7d8
    507c:	d61f0220 	br	x17

0000000000005080 <_ZN7android20ibinderForJavaObjectEP7_JNIEnvP8_jobject@plt>:
    5080:	d0000010 	adrp	x16, 7000 <_ZN7android8String16C1EPKc@plt+0x1c70>
    5084:	f943f211 	ldr	x17, [x16,#2016]
    5088:	911f8210 	add	x16, x16, #0x7e0
    508c:	d61f0220 	br	x17

0000000000005090 <_Znwm@plt>:
    5090:	d0000010 	adrp	x16, 7000 <_ZN7android8String16C1EPKc@plt+0x1c70>
    5094:	f943f611 	ldr	x17, [x16,#2024]
    5098:	911fa210 	add	x16, x16, #0x7e8
    509c:	d61f0220 	br	x17

00000000000050a0 <_ZNK7android7RefBase9incStrongEPKv@plt>:
    50a0:	d0000010 	adrp	x16, 7000 <_ZN7android8String16C1EPKc@plt+0x1c70>
    50a4:	f943fa11 	ldr	x17, [x16,#2032]
    50a8:	911fc210 	add	x16, x16, #0x7f0
    50ac:	d61f0220 	br	x17

00000000000050b0 <_ZNK7android7RefBase9decStrongEPKv@plt>:
    50b0:	d0000010 	adrp	x16, 7000 <_ZN7android8String16C1EPKc@plt+0x1c70>
    50b4:	f943fe11 	ldr	x17, [x16,#2040]
    50b8:	911fe210 	add	x16, x16, #0x7f8
    50bc:	d61f0220 	br	x17

00000000000050c0 <_ZN7android14sp_report_raceEv@plt>:
    50c0:	d0000010 	adrp	x16, 7000 <_ZN7android8String16C1EPKc@plt+0x1c70>
    50c4:	f9440211 	ldr	x17, [x16,#2048]
    50c8:	91200210 	add	x16, x16, #0x800
    50cc:	d61f0220 	br	x17

00000000000050d0 <_ZN7android10VectorImplC2Emj@plt>:
    50d0:	d0000010 	adrp	x16, 7000 <_ZN7android8String16C1EPKc@plt+0x1c70>
    50d4:	f9440611 	ldr	x17, [x16,#2056]
    50d8:	91202210 	add	x16, x16, #0x808
    50dc:	d61f0220 	br	x17

00000000000050e0 <_ZN7android7String8D1Ev@plt>:
    50e0:	d0000010 	adrp	x16, 7000 <_ZN7android8String16C1EPKc@plt+0x1c70>
    50e4:	f9440a11 	ldr	x17, [x16,#2064]
    50e8:	91204210 	add	x16, x16, #0x810
    50ec:	d61f0220 	br	x17

00000000000050f0 <_ZN7android10VectorImpl13finish_vectorEv@plt>:
    50f0:	d0000010 	adrp	x16, 7000 <_ZN7android8String16C1EPKc@plt+0x1c70>
    50f4:	f9440e11 	ldr	x17, [x16,#2072]
    50f8:	91206210 	add	x16, x16, #0x818
    50fc:	d61f0220 	br	x17

0000000000005100 <_ZN7android10VectorImplD2Ev@plt>:
    5100:	d0000010 	adrp	x16, 7000 <_ZN7android8String16C1EPKc@plt+0x1c70>
    5104:	f9441211 	ldr	x17, [x16,#2080]
    5108:	91208210 	add	x16, x16, #0x820
    510c:	d61f0220 	br	x17

0000000000005110 <__stack_chk_fail@plt>:
    5110:	d0000010 	adrp	x16, 7000 <_ZN7android8String16C1EPKc@plt+0x1c70>
    5114:	f9441611 	ldr	x17, [x16,#2088]
    5118:	9120a210 	add	x16, x16, #0x828
    511c:	d61f0220 	br	x17

0000000000005120 <_ZdlPv@plt>:
    5120:	d0000010 	adrp	x16, 7000 <_ZN7android8String16C1EPKc@plt+0x1c70>
    5124:	f9441a11 	ldr	x17, [x16,#2096]
    5128:	9120c210 	add	x16, x16, #0x830
    512c:	d61f0220 	br	x17

0000000000005130 <__android_log_assert@plt>:
    5130:	d0000010 	adrp	x16, 7000 <_ZN7android8String16C1EPKc@plt+0x1c70>
    5134:	f9441e11 	ldr	x17, [x16,#2104]
    5138:	9120e210 	add	x16, x16, #0x838
    513c:	d61f0220 	br	x17

0000000000005140 <_ZN7android7BBinderC1Ev@plt>:
    5140:	d0000010 	adrp	x16, 7000 <_ZN7android8String16C1EPKc@plt+0x1c70>
    5144:	f9442211 	ldr	x17, [x16,#2112]
    5148:	91210210 	add	x16, x16, #0x840
    514c:	d61f0220 	br	x17

0000000000005150 <__errno@plt>:
    5150:	d0000010 	adrp	x16, 7000 <_ZN7android8String16C1EPKc@plt+0x1c70>
    5154:	f9442611 	ldr	x17, [x16,#2120]
    5158:	91212210 	add	x16, x16, #0x848
    515c:	d61f0220 	br	x17

0000000000005160 <android_fdsan_create_owner_tag@plt>:
    5160:	d0000010 	adrp	x16, 7000 <_ZN7android8String16C1EPKc@plt+0x1c70>
    5164:	f9442a11 	ldr	x17, [x16,#2128]
    5168:	91214210 	add	x16, x16, #0x850
    516c:	d61f0220 	br	x17

0000000000005170 <android_fdsan_close_with_tag@plt>:
    5170:	d0000010 	adrp	x16, 7000 <_ZN7android8String16C1EPKc@plt+0x1c70>
    5174:	f9442e11 	ldr	x17, [x16,#2136]
    5178:	91216210 	add	x16, x16, #0x858
    517c:	d61f0220 	br	x17

0000000000005180 <close@plt>:
    5180:	d0000010 	adrp	x16, 7000 <_ZN7android8String16C1EPKc@plt+0x1c70>
    5184:	f9443211 	ldr	x17, [x16,#2144]
    5188:	91218210 	add	x16, x16, #0x860
    518c:	d61f0220 	br	x17

0000000000005190 <__poll_chk@plt>:
    5190:	d0000010 	adrp	x16, 7000 <_ZN7android8String16C1EPKc@plt+0x1c70>
    5194:	f9443611 	ldr	x17, [x16,#2152]
    5198:	9121a210 	add	x16, x16, #0x868
    519c:	d61f0220 	br	x17

00000000000051a0 <__read_chk@plt>:
    51a0:	d0000010 	adrp	x16, 7000 <_ZN7android8String16C1EPKc@plt+0x1c70>
    51a4:	f9443a11 	ldr	x17, [x16,#2160]
    51a8:	9121c210 	add	x16, x16, #0x870
    51ac:	d61f0220 	br	x17

00000000000051b0 <memcpy@plt>:
    51b0:	d0000010 	adrp	x16, 7000 <_ZN7android8String16C1EPKc@plt+0x1c70>
    51b4:	f9443e11 	ldr	x17, [x16,#2168]
    51b8:	9121e210 	add	x16, x16, #0x878
    51bc:	d61f0220 	br	x17

00000000000051c0 <AMidiInputPort_sendWithTimestamp@plt>:
    51c0:	d0000010 	adrp	x16, 7000 <_ZN7android8String16C1EPKc@plt+0x1c70>
    51c4:	f9444211 	ldr	x17, [x16,#2176]
    51c8:	91220210 	add	x16, x16, #0x880
    51cc:	d61f0220 	br	x17

00000000000051d0 <__memcpy_chk@plt>:
    51d0:	d0000010 	adrp	x16, 7000 <_ZN7android8String16C1EPKc@plt+0x1c70>
    51d4:	f9444611 	ldr	x17, [x16,#2184]
    51d8:	91222210 	add	x16, x16, #0x888
    51dc:	d61f0220 	br	x17

00000000000051e0 <__write_chk@plt>:
    51e0:	d0000010 	adrp	x16, 7000 <_ZN7android8String16C1EPKc@plt+0x1c70>
    51e4:	f9444a11 	ldr	x17, [x16,#2192]
    51e8:	91224210 	add	x16, x16, #0x890
    51ec:	d61f0220 	br	x17

00000000000051f0 <_ZN7android8String16C1Ev@plt>:
    51f0:	d0000010 	adrp	x16, 7000 <_ZN7android8String16C1EPKc@plt+0x1c70>
    51f4:	f9444e11 	ldr	x17, [x16,#2200]
    51f8:	91226210 	add	x16, x16, #0x898
    51fc:	d61f0220 	br	x17

0000000000005200 <_ZN7android8String16D1Ev@plt>:
    5200:	d0000010 	adrp	x16, 7000 <_ZN7android8String16C1EPKc@plt+0x1c70>
    5204:	f9445211 	ldr	x17, [x16,#2208]
    5208:	91228210 	add	x16, x16, #0x8a0
    520c:	d61f0220 	br	x17

0000000000005210 <_ZN7android8String16C1ERKS0_@plt>:
    5210:	d0000010 	adrp	x16, 7000 <_ZN7android8String16C1EPKc@plt+0x1c70>
    5214:	f9445611 	ldr	x17, [x16,#2216]
    5218:	9122a210 	add	x16, x16, #0x8a8
    521c:	d61f0220 	br	x17

0000000000005220 <memmove@plt>:
    5220:	d0000010 	adrp	x16, 7000 <_ZN7android8String16C1EPKc@plt+0x1c70>
    5224:	f9445a11 	ldr	x17, [x16,#2224]
    5228:	9122c210 	add	x16, x16, #0x8b0
    522c:	d61f0220 	br	x17

0000000000005230 <android_fdsan_exchange_owner_tag@plt>:
    5230:	d0000010 	adrp	x16, 7000 <_ZN7android8String16C1EPKc@plt+0x1c70>
    5234:	f9445e11 	ldr	x17, [x16,#2232]
    5238:	9122e210 	add	x16, x16, #0x8b8
    523c:	d61f0220 	br	x17

0000000000005240 <__cxa_atexit@plt>:
    5240:	d0000010 	adrp	x16, 7000 <_ZN7android8String16C1EPKc@plt+0x1c70>
    5244:	f9446211 	ldr	x17, [x16,#2240]
    5248:	91230210 	add	x16, x16, #0x8c0
    524c:	d61f0220 	br	x17

0000000000005250 <_ZN7android7RefBaseC2Ev@plt>:
    5250:	d0000010 	adrp	x16, 7000 <_ZN7android8String16C1EPKc@plt+0x1c70>
    5254:	f9446611 	ldr	x17, [x16,#2248]
    5258:	91232210 	add	x16, x16, #0x8c8
    525c:	d61f0220 	br	x17

0000000000005260 <_ZN7android10IInterfaceC2Ev@plt>:
    5260:	d0000010 	adrp	x16, 7000 <_ZN7android8String16C1EPKc@plt+0x1c70>
    5264:	f9446a11 	ldr	x17, [x16,#2256]
    5268:	91234210 	add	x16, x16, #0x8d0
    526c:	d61f0220 	br	x17

0000000000005270 <_ZN7android9BpRefBaseC2ERKNS_2spINS_7IBinderEEE@plt>:
    5270:	d0000010 	adrp	x16, 7000 <_ZN7android8String16C1EPKc@plt+0x1c70>
    5274:	f9446e11 	ldr	x17, [x16,#2264]
    5278:	91236210 	add	x16, x16, #0x8d8
    527c:	d61f0220 	br	x17

0000000000005280 <_ZN7android6ParcelC1Ev@plt>:
    5280:	d0000010 	adrp	x16, 7000 <_ZN7android8String16C1EPKc@plt+0x1c70>
    5284:	f9447211 	ldr	x17, [x16,#2272]
    5288:	91238210 	add	x16, x16, #0x8e0
    528c:	d61f0220 	br	x17

0000000000005290 <_ZN7android7String8C1Ev@plt>:
    5290:	d0000010 	adrp	x16, 7000 <_ZN7android8String16C1EPKc@plt+0x1c70>
    5294:	f9447611 	ldr	x17, [x16,#2280]
    5298:	9123a210 	add	x16, x16, #0x8e8
    529c:	d61f0220 	br	x17

00000000000052a0 <_ZN7android6Parcel19writeInterfaceTokenERKNS_8String16E@plt>:
    52a0:	d0000010 	adrp	x16, 7000 <_ZN7android8String16C1EPKc@plt+0x1c70>
    52a4:	f9447a11 	ldr	x17, [x16,#2288]
    52a8:	9123c210 	add	x16, x16, #0x8f0
    52ac:	d61f0220 	br	x17

00000000000052b0 <_ZN7android6Parcel17writeStrongBinderERKNS_2spINS_7IBinderEEE@plt>:
    52b0:	d0000010 	adrp	x16, 7000 <_ZN7android8String16C1EPKc@plt+0x1c70>
    52b4:	f9447e11 	ldr	x17, [x16,#2296]
    52b8:	9123e210 	add	x16, x16, #0x8f8
    52bc:	d61f0220 	br	x17

00000000000052c0 <_ZN7android6Parcel10writeInt32Ei@plt>:
    52c0:	d0000010 	adrp	x16, 7000 <_ZN7android8String16C1EPKc@plt+0x1c70>
    52c4:	f9448211 	ldr	x17, [x16,#2304]
    52c8:	91240210 	add	x16, x16, #0x900
    52cc:	d61f0220 	br	x17

00000000000052d0 <_ZN7android6binder6Status14setFromStatusTEi@plt>:
    52d0:	d0000010 	adrp	x16, 7000 <_ZN7android8String16C1EPKc@plt+0x1c70>
    52d4:	f9448611 	ldr	x17, [x16,#2312]
    52d8:	91242210 	add	x16, x16, #0x908
    52dc:	d61f0220 	br	x17

00000000000052e0 <_ZN7android7String8C1ERKS0_@plt>:
    52e0:	d0000010 	adrp	x16, 7000 <_ZN7android8String16C1EPKc@plt+0x1c70>
    52e4:	f9448a11 	ldr	x17, [x16,#2320]
    52e8:	91244210 	add	x16, x16, #0x910
    52ec:	d61f0220 	br	x17

00000000000052f0 <_ZN7android6ParcelD1Ev@plt>:
    52f0:	d0000010 	adrp	x16, 7000 <_ZN7android8String16C1EPKc@plt+0x1c70>
    52f4:	f9448e11 	ldr	x17, [x16,#2328]
    52f8:	91246210 	add	x16, x16, #0x918
    52fc:	d61f0220 	br	x17

0000000000005300 <_ZN7android6binder6Status14readFromParcelERKNS_6ParcelE@plt>:
    5300:	d0000010 	adrp	x16, 7000 <_ZN7android8String16C1EPKc@plt+0x1c70>
    5304:	f9449211 	ldr	x17, [x16,#2336]
    5308:	91248210 	add	x16, x16, #0x920
    530c:	d61f0220 	br	x17

0000000000005310 <_ZNK7android6Parcel24readUniqueFileDescriptorEPNS_4base14unique_fd_implINS1_13DefaultCloserEEE@plt>:
    5310:	d0000010 	adrp	x16, 7000 <_ZN7android8String16C1EPKc@plt+0x1c70>
    5314:	f9449611 	ldr	x17, [x16,#2344]
    5318:	9124a210 	add	x16, x16, #0x928
    531c:	d61f0220 	br	x17

0000000000005320 <_ZN7android6Parcel25writeUniqueFileDescriptorERKNS_4base14unique_fd_implINS1_13DefaultCloserEEE@plt>:
    5320:	d0000010 	adrp	x16, 7000 <_ZN7android8String16C1EPKc@plt+0x1c70>
    5324:	f9449a11 	ldr	x17, [x16,#2352]
    5328:	9124c210 	add	x16, x16, #0x930
    532c:	d61f0220 	br	x17

0000000000005330 <_ZNK7android6Parcel9readInt32EPi@plt>:
    5330:	d0000010 	adrp	x16, 7000 <_ZN7android8String16C1EPKc@plt+0x1c70>
    5334:	f9449e11 	ldr	x17, [x16,#2360]
    5338:	9124e210 	add	x16, x16, #0x938
    533c:	d61f0220 	br	x17

0000000000005340 <_ZNK7android6Parcel14readParcelableEPNS_10ParcelableE@plt>:
    5340:	d0000010 	adrp	x16, 7000 <_ZN7android8String16C1EPKc@plt+0x1c70>
    5344:	f944a211 	ldr	x17, [x16,#2368]
    5348:	91250210 	add	x16, x16, #0x940
    534c:	d61f0220 	br	x17

0000000000005350 <_ZN7android6Parcel15writeParcelableERKNS_10ParcelableE@plt>:
    5350:	d0000010 	adrp	x16, 7000 <_ZN7android8String16C1EPKc@plt+0x1c70>
    5354:	f944a611 	ldr	x17, [x16,#2376]
    5358:	91252210 	add	x16, x16, #0x948
    535c:	d61f0220 	br	x17

0000000000005360 <_ZN7android9BpRefBaseD2Ev@plt>:
    5360:	d0000010 	adrp	x16, 7000 <_ZN7android8String16C1EPKc@plt+0x1c70>
    5364:	f944aa11 	ldr	x17, [x16,#2384]
    5368:	91254210 	add	x16, x16, #0x950
    536c:	d61f0220 	br	x17

0000000000005370 <_ZN7android10IInterfaceD2Ev@plt>:
    5370:	d0000010 	adrp	x16, 7000 <_ZN7android8String16C1EPKc@plt+0x1c70>
    5374:	f944ae11 	ldr	x17, [x16,#2392]
    5378:	91256210 	add	x16, x16, #0x958
    537c:	d61f0220 	br	x17

0000000000005380 <_ZN7android7RefBaseD2Ev@plt>:
    5380:	d0000010 	adrp	x16, 7000 <_ZN7android8String16C1EPKc@plt+0x1c70>
    5384:	f944b211 	ldr	x17, [x16,#2400]
    5388:	91258210 	add	x16, x16, #0x960
    538c:	d61f0220 	br	x17

0000000000005390 <_ZN7android8String16C1EPKc@plt>:
    5390:	d0000010 	adrp	x16, 7000 <_ZN7android8String16C1EPKc@plt+0x1c70>
    5394:	f944b611 	ldr	x17, [x16,#2408]
    5398:	9125a210 	add	x16, x16, #0x968
    539c:	d61f0220 	br	x17

Disassembly of section .data:

0000000000006000 <.data>:
    6000:	00006000 	.inst	0x00006000 ; undefined
    6004:	00000000 	.inst	0x00000000 ; undefined

Disassembly of section .fini_array:

0000000000007000 <.fini_array>:
    7000:	00003018 	.inst	0x00003018 ; undefined
    7004:	00000000 	.inst	0x00000000 ; undefined
    7008:	00003000 	.inst	0x00003000 ; undefined
    700c:	00000000 	.inst	0x00000000 ; undefined

Disassembly of section .data.rel.ro:

0000000000007010 <.data.rel.ro>:
	...
    7020:	00003d80 	.inst	0x00003d80 ; undefined
    7024:	00000000 	.inst	0x00000000 ; undefined
    7028:	00003db0 	.inst	0x00003db0 ; undefined
    702c:	00000000 	.inst	0x00000000 ; undefined
    7030:	00003de8 	.inst	0x00003de8 ; undefined
    7034:	00000000 	.inst	0x00000000 ; undefined
    7038:	00003e20 	.inst	0x00003e20 ; undefined
    703c:	00000000 	.inst	0x00000000 ; undefined
    7040:	00003e58 	.inst	0x00003e58 ; undefined
    7044:	00000000 	.inst	0x00000000 ; undefined
    7048:	00003ea8 	.inst	0x00003ea8 ; undefined
    704c:	00000000 	.inst	0x00000000 ; undefined
    7050:	00003ef0 	.inst	0x00003ef0 ; undefined
    7054:	00000000 	.inst	0x00000000 ; undefined
    7058:	00003ef0 	.inst	0x00003ef0 ; undefined
    705c:	00000000 	.inst	0x00000000 ; undefined
    7060:	00000028 	.inst	0x00000028 ; undefined
	...
    7078:	00004e08 	.inst	0x00004e08 ; undefined
    707c:	00000000 	.inst	0x00000000 ; undefined
    7080:	00004e48 	.inst	0x00004e48 ; undefined
    7084:	00000000 	.inst	0x00000000 ; undefined
    7088:	00004e00 	.inst	0x00004e00 ; undefined
    708c:	00000000 	.inst	0x00000000 ; undefined
    7090:	000042e8 	.inst	0x000042e8 ; undefined
    7094:	00000000 	.inst	0x00000000 ; undefined
    7098:	000043a8 	.inst	0x000043a8 ; undefined
    709c:	00000000 	.inst	0x00000000 ; undefined
    70a0:	00004550 	.inst	0x00004550 ; undefined
    70a4:	00000000 	.inst	0x00000000 ; undefined
    70a8:	000046f8 	.inst	0x000046f8 ; undefined
    70ac:	00000000 	.inst	0x00000000 ; undefined
    70b0:	00004868 	.inst	0x00004868 ; undefined
    70b4:	00000000 	.inst	0x00000000 ; undefined
    70b8:	00004990 	.inst	0x00004990 ; undefined
    70bc:	00000000 	.inst	0x00000000 ; undefined
    70c0:	00004b58 	.inst	0x00004b58 ; undefined
    70c4:	00000000 	.inst	0x00000000 ; undefined
    70c8:	00004cc0 	.inst	0x00004cc0 ; undefined
    70cc:	00000000 	.inst	0x00000000 ; undefined
    70d0:	00000020 	.inst	0x00000020 ; undefined
    70d4:	00000000 	.inst	0x00000000 ; undefined
    70d8:	fffffff8 	.inst	0xfffffff8 ; undefined
    70dc:	ffffffff 	.inst	0xffffffff ; undefined
	...
    70e8:	00004e90 	.inst	0x00004e90 ; undefined
    70ec:	00000000 	.inst	0x00000000 ; undefined
    70f0:	00004ed8 	.inst	0x00004ed8 ; undefined
	...
    7118:	ffffffe0 	.inst	0xffffffe0 ; undefined
    711c:	ffffffff 	.inst	0xffffffff ; undefined
    7120:	ffffffe0 	.inst	0xffffffe0 ; undefined
    7124:	ffffffff 	.inst	0xffffffff ; undefined
    7128:	ffffffe0 	.inst	0xffffffe0 ; undefined
    712c:	ffffffff 	.inst	0xffffffff ; undefined
    7130:	ffffffd8 	.inst	0xffffffd8 ; undefined
    7134:	ffffffff 	.inst	0xffffffff ; undefined
    7138:	ffffffd8 	.inst	0xffffffd8 ; undefined
    713c:	ffffffff 	.inst	0xffffffff ; undefined
	...
    7148:	00004f28 	.inst	0x00004f28 ; undefined
    714c:	00000000 	.inst	0x00000000 ; undefined
    7150:	00004f70 	.inst	0x00004f70 ; undefined
	...
    7178:	00007078 	.inst	0x00007078 ; undefined
    717c:	00000000 	.inst	0x00000000 ; undefined
    7180:	000071f0 	.inst	0x000071f0 ; undefined
    7184:	00000000 	.inst	0x00000000 ; undefined
    7188:	00007308 	.inst	0x00007308 ; undefined
    718c:	00000000 	.inst	0x00000000 ; undefined
    7190:	000073e0 	.inst	0x000073e0 ; undefined
    7194:	00000000 	.inst	0x00000000 ; undefined
    7198:	00007430 	.inst	0x00007430 ; undefined
    719c:	00000000 	.inst	0x00000000 ; undefined
    71a0:	00007398 	.inst	0x00007398 ; undefined
    71a4:	00000000 	.inst	0x00000000 ; undefined
    71a8:	00007478 	.inst	0x00007478 ; undefined
    71ac:	00000000 	.inst	0x00000000 ; undefined
    71b0:	000074d8 	.inst	0x000074d8 ; undefined
    71b4:	00000000 	.inst	0x00000000 ; undefined
    71b8:	000072c0 	.inst	0x000072c0 ; undefined
    71bc:	00000000 	.inst	0x00000000 ; undefined
    71c0:	00007260 	.inst	0x00007260 ; undefined
    71c4:	00000000 	.inst	0x00000000 ; undefined
    71c8:	00007148 	.inst	0x00007148 ; undefined
    71cc:	00000000 	.inst	0x00000000 ; undefined
    71d0:	000070e8 	.inst	0x000070e8 ; undefined
    71d4:	00000000 	.inst	0x00000000 ; undefined
    71d8:	00000028 	.inst	0x00000028 ; undefined
	...
    71f0:	000043a0 	.inst	0x000043a0 ; undefined
    71f4:	00000000 	.inst	0x00000000 ; undefined
    71f8:	000043a0 	.inst	0x000043a0 ; undefined
    71fc:	00000000 	.inst	0x00000000 ; undefined
    7200:	00004e00 	.inst	0x00004e00 ; undefined
    7204:	00000000 	.inst	0x00000000 ; undefined
    7208:	000042e8 	.inst	0x000042e8 ; undefined
	...
    7248:	00000020 	.inst	0x00000020 ; undefined
    724c:	00000000 	.inst	0x00000000 ; undefined
    7250:	fffffff8 	.inst	0xfffffff8 ; undefined
    7254:	ffffffff 	.inst	0xffffffff ; undefined
	...
    7260:	000043a0 	.inst	0x000043a0 ; undefined
    7264:	00000000 	.inst	0x00000000 ; undefined
    7268:	000043a0 	.inst	0x000043a0 ; undefined
	...
    7290:	ffffffe0 	.inst	0xffffffe0 ; undefined
    7294:	ffffffff 	.inst	0xffffffff ; undefined
    7298:	ffffffe0 	.inst	0xffffffe0 ; undefined
    729c:	ffffffff 	.inst	0xffffffff ; undefined
    72a0:	ffffffe0 	.inst	0xffffffe0 ; undefined
    72a4:	ffffffff 	.inst	0xffffffff ; undefined
    72a8:	ffffffd8 	.inst	0xffffffd8 ; undefined
    72ac:	ffffffff 	.inst	0xffffffff ; undefined
    72b0:	ffffffd8 	.inst	0xffffffd8 ; undefined
    72b4:	ffffffff 	.inst	0xffffffff ; undefined
	...
    72c0:	000043a0 	.inst	0x000043a0 ; undefined
    72c4:	00000000 	.inst	0x00000000 ; undefined
    72c8:	000043a0 	.inst	0x000043a0 ; undefined
	...
    72f0:	00000028 	.inst	0x00000028 ; undefined
	...
    7308:	000043a0 	.inst	0x000043a0 ; undefined
    730c:	00000000 	.inst	0x00000000 ; undefined
    7310:	000043a0 	.inst	0x000043a0 ; undefined
	...
    7320:	000042e8 	.inst	0x000042e8 ; undefined
	...
    7380:	ffffffd8 	.inst	0xffffffd8 ; undefined
    7384:	ffffffff 	.inst	0xffffffff ; undefined
    7388:	ffffffd8 	.inst	0xffffffd8 ; undefined
    738c:	ffffffff 	.inst	0xffffffff ; undefined
	...
    7398:	000043a0 	.inst	0x000043a0 ; undefined
    739c:	00000000 	.inst	0x00000000 ; undefined
    73a0:	000043a0 	.inst	0x000043a0 ; undefined
	...
    73c8:	00000028 	.inst	0x00000028 ; undefined
	...
    7418:	ffffffd8 	.inst	0xffffffd8 ; undefined
    741c:	ffffffff 	.inst	0xffffffff ; undefined
    7420:	ffffffd8 	.inst	0xffffffd8 ; undefined
    7424:	ffffffff 	.inst	0xffffffff ; undefined
	...
    7460:	00000020 	.inst	0x00000020 ; undefined
	...
    74a8:	ffffffe0 	.inst	0xffffffe0 ; undefined
    74ac:	ffffffff 	.inst	0xffffffff ; undefined
    74b0:	ffffffe0 	.inst	0xffffffe0 ; undefined
    74b4:	ffffffff 	.inst	0xffffffff ; undefined
    74b8:	ffffffe0 	.inst	0xffffffe0 ; undefined
    74bc:	ffffffff 	.inst	0xffffffff ; undefined
    74c0:	ffffffe0 	.inst	0xffffffe0 ; undefined
    74c4:	ffffffff 	.inst	0xffffffff ; undefined
    74c8:	ffffffe0 	.inst	0xffffffe0 ; undefined
    74cc:	ffffffff 	.inst	0xffffffff ; undefined
	...

Disassembly of section .init_array:

0000000000007508 <.init_array>:
    7508:	000042c8 	.inst	0x000042c8 ; undefined
    750c:	00000000 	.inst	0x00000000 ; undefined
    7510:	00004fc0 	.inst	0x00004fc0 ; undefined
    7514:	00000000 	.inst	0x00000000 ; undefined

Disassembly of section .dynamic:

0000000000007518 <.dynamic>:
    7518:	00000001 	.inst	0x00000001 ; undefined
    751c:	00000000 	.inst	0x00000000 ; undefined
    7520:	00000001 	.inst	0x00000001 ; undefined
    7524:	00000000 	.inst	0x00000000 ; undefined
    7528:	00000001 	.inst	0x00000001 ; undefined
    752c:	00000000 	.inst	0x00000000 ; undefined
    7530:	0000000b 	.inst	0x0000000b ; undefined
    7534:	00000000 	.inst	0x00000000 ; undefined
    7538:	00000001 	.inst	0x00000001 ; undefined
    753c:	00000000 	.inst	0x00000000 ; undefined
    7540:	00000018 	.inst	0x00000018 ; undefined
    7544:	00000000 	.inst	0x00000000 ; undefined
    7548:	00000001 	.inst	0x00000001 ; undefined
    754c:	00000000 	.inst	0x00000000 ; undefined
    7550:	00000024 	.inst	0x00000024 ; undefined
    7554:	00000000 	.inst	0x00000000 ; undefined
    7558:	00000001 	.inst	0x00000001 ; undefined
    755c:	00000000 	.inst	0x00000000 ; undefined
    7560:	00000030 	.inst	0x00000030 ; undefined
    7564:	00000000 	.inst	0x00000000 ; undefined
    7568:	00000001 	.inst	0x00000001 ; undefined
    756c:	00000000 	.inst	0x00000000 ; undefined
    7570:	0000003f 	.inst	0x0000003f ; undefined
    7574:	00000000 	.inst	0x00000000 ; undefined
    7578:	00000001 	.inst	0x00000001 ; undefined
    757c:	00000000 	.inst	0x00000000 ; undefined
    7580:	00000055 	.inst	0x00000055 ; undefined
    7584:	00000000 	.inst	0x00000000 ; undefined
    7588:	00000001 	.inst	0x00000001 ; undefined
    758c:	00000000 	.inst	0x00000000 ; undefined
    7590:	0000005f 	.inst	0x0000005f ; undefined
    7594:	00000000 	.inst	0x00000000 ; undefined
    7598:	00000001 	.inst	0x00000001 ; undefined
    759c:	00000000 	.inst	0x00000000 ; undefined
    75a0:	00000067 	.inst	0x00000067 ; undefined
    75a4:	00000000 	.inst	0x00000000 ; undefined
    75a8:	00000001 	.inst	0x00000001 ; undefined
    75ac:	00000000 	.inst	0x00000000 ; undefined
    75b0:	0000006f 	.inst	0x0000006f ; undefined
    75b4:	00000000 	.inst	0x00000000 ; undefined
    75b8:	0000000e 	.inst	0x0000000e ; undefined
    75bc:	00000000 	.inst	0x00000000 ; undefined
    75c0:	00000078 	.inst	0x00000078 ; undefined
    75c4:	00000000 	.inst	0x00000000 ; undefined
    75c8:	0000001e 	.inst	0x0000001e ; undefined
    75cc:	00000000 	.inst	0x00000000 ; undefined
    75d0:	00000008 	.inst	0x00000008 ; undefined
    75d4:	00000000 	.inst	0x00000000 ; undefined
    75d8:	6ffffffb 	.inst	0x6ffffffb ; undefined
    75dc:	00000000 	.inst	0x00000000 ; undefined
    75e0:	00000001 	.inst	0x00000001 ; undefined
    75e4:	00000000 	.inst	0x00000000 ; undefined
    75e8:	60000011 	.inst	0x60000011 ; undefined
    75ec:	00000000 	.inst	0x00000000 ; undefined
    75f0:	000018f0 	.inst	0x000018f0 ; undefined
    75f4:	00000000 	.inst	0x00000000 ; undefined
    75f8:	60000012 	.inst	0x60000012 ; undefined
    75fc:	00000000 	.inst	0x00000000 ; undefined
    7600:	00000209 	.inst	0x00000209 ; undefined
    7604:	00000000 	.inst	0x00000000 ; undefined
    7608:	00000009 	.inst	0x00000009 ; undefined
    760c:	00000000 	.inst	0x00000000 ; undefined
    7610:	00000018 	.inst	0x00000018 ; undefined
    7614:	00000000 	.inst	0x00000000 ; undefined
    7618:	6fffe000 	.inst	0x6fffe000 ; undefined
    761c:	00000000 	.inst	0x00000000 ; undefined
    7620:	00001b00 	.inst	0x00001b00 ; undefined
    7624:	00000000 	.inst	0x00000000 ; undefined
    7628:	6fffe001 	.inst	0x6fffe001 ; undefined
    762c:	00000000 	.inst	0x00000000 ; undefined
    7630:	00000028 	.inst	0x00000028 ; undefined
    7634:	00000000 	.inst	0x00000000 ; undefined
    7638:	6fffe003 	.inst	0x6fffe003 ; undefined
    763c:	00000000 	.inst	0x00000000 ; undefined
    7640:	00000008 	.inst	0x00000008 ; undefined
    7644:	00000000 	.inst	0x00000000 ; undefined
    7648:	00000017 	.inst	0x00000017 ; undefined
    764c:	00000000 	.inst	0x00000000 ; undefined
    7650:	00001b28 	.inst	0x00001b28 ; undefined
    7654:	00000000 	.inst	0x00000000 ; undefined
    7658:	00000002 	.inst	0x00000002 ; undefined
    765c:	00000000 	.inst	0x00000000 ; undefined
    7660:	00000510 	.inst	0x00000510 ; undefined
    7664:	00000000 	.inst	0x00000000 ; undefined
    7668:	00000003 	.inst	0x00000003 ; undefined
    766c:	00000000 	.inst	0x00000000 ; undefined
    7670:	000077a8 	.inst	0x000077a8 ; undefined
    7674:	00000000 	.inst	0x00000000 ; undefined
    7678:	00000014 	.inst	0x00000014 ; undefined
    767c:	00000000 	.inst	0x00000000 ; undefined
    7680:	00000007 	.inst	0x00000007 ; undefined
    7684:	00000000 	.inst	0x00000000 ; undefined
    7688:	00000006 	.inst	0x00000006 ; undefined
    768c:	00000000 	.inst	0x00000000 ; undefined
    7690:	00000270 	.inst	0x00000270 ; undefined
    7694:	00000000 	.inst	0x00000000 ; undefined
    7698:	0000000b 	.inst	0x0000000b ; undefined
    769c:	00000000 	.inst	0x00000000 ; undefined
    76a0:	00000018 	.inst	0x00000018 ; undefined
    76a4:	00000000 	.inst	0x00000000 ; undefined
    76a8:	00000005 	.inst	0x00000005 ; undefined
    76ac:	00000000 	.inst	0x00000000 ; undefined
    76b0:	00000d10 	.inst	0x00000d10 ; undefined
    76b4:	00000000 	.inst	0x00000000 ; undefined
    76b8:	0000000a 	.inst	0x0000000a ; undefined
    76bc:	00000000 	.inst	0x00000000 ; undefined
    76c0:	00000bdd 	.inst	0x00000bdd ; undefined
    76c4:	00000000 	.inst	0x00000000 ; undefined
    76c8:	6ffffef5 	.inst	0x6ffffef5 ; undefined
    76cc:	00000000 	.inst	0x00000000 ; undefined
    76d0:	00000c90 	.inst	0x00000c90 ; undefined
    76d4:	00000000 	.inst	0x00000000 ; undefined
    76d8:	00000019 	.inst	0x00000019 ; undefined
    76dc:	00000000 	.inst	0x00000000 ; undefined
    76e0:	00007508 	.inst	0x00007508 ; undefined
    76e4:	00000000 	.inst	0x00000000 ; undefined
    76e8:	0000001b 	.inst	0x0000001b ; undefined
    76ec:	00000000 	.inst	0x00000000 ; undefined
    76f0:	00000010 	.inst	0x00000010 ; undefined
    76f4:	00000000 	.inst	0x00000000 ; undefined
    76f8:	0000001a 	.inst	0x0000001a ; undefined
    76fc:	00000000 	.inst	0x00000000 ; undefined
    7700:	00007000 	.inst	0x00007000 ; undefined
    7704:	00000000 	.inst	0x00000000 ; undefined
    7708:	0000001c 	.inst	0x0000001c ; undefined
    770c:	00000000 	.inst	0x00000000 ; undefined
    7710:	00000010 	.inst	0x00000010 ; undefined
    7714:	00000000 	.inst	0x00000000 ; undefined
    7718:	6ffffff0 	.inst	0x6ffffff0 ; undefined
    771c:	00000000 	.inst	0x00000000 ; undefined
    7720:	00000b70 	.inst	0x00000b70 ; undefined
    7724:	00000000 	.inst	0x00000000 ; undefined
    7728:	6ffffffe 	.inst	0x6ffffffe ; undefined
    772c:	00000000 	.inst	0x00000000 ; undefined
    7730:	00000c30 	.inst	0x00000c30 ; undefined
    7734:	00000000 	.inst	0x00000000 ; undefined
    7738:	6fffffff 	.inst	0x6fffffff ; undefined
    773c:	00000000 	.inst	0x00000000 ; undefined
    7740:	00000002 	.inst	0x00000002 ; undefined
	...

Disassembly of section .got:

0000000000007758 <.got>:
	...

Disassembly of section .got.plt:

00000000000077a8 <_edata@@Base-0x1c8>:
	...
    77c0:	00005020 	.inst	0x00005020 ; undefined
    77c4:	00000000 	.inst	0x00000000 ; undefined
    77c8:	00005020 	.inst	0x00005020 ; undefined
    77cc:	00000000 	.inst	0x00000000 ; undefined
    77d0:	00005020 	.inst	0x00005020 ; undefined
    77d4:	00000000 	.inst	0x00000000 ; undefined
    77d8:	00005020 	.inst	0x00005020 ; undefined
    77dc:	00000000 	.inst	0x00000000 ; undefined
    77e0:	00005020 	.inst	0x00005020 ; undefined
    77e4:	00000000 	.inst	0x00000000 ; undefined
    77e8:	00005020 	.inst	0x00005020 ; undefined
    77ec:	00000000 	.inst	0x00000000 ; undefined
    77f0:	00005020 	.inst	0x00005020 ; undefined
    77f4:	00000000 	.inst	0x00000000 ; undefined
    77f8:	00005020 	.inst	0x00005020 ; undefined
    77fc:	00000000 	.inst	0x00000000 ; undefined
    7800:	00005020 	.inst	0x00005020 ; undefined
    7804:	00000000 	.inst	0x00000000 ; undefined
    7808:	00005020 	.inst	0x00005020 ; undefined
    780c:	00000000 	.inst	0x00000000 ; undefined
    7810:	00005020 	.inst	0x00005020 ; undefined
    7814:	00000000 	.inst	0x00000000 ; undefined
    7818:	00005020 	.inst	0x00005020 ; undefined
    781c:	00000000 	.inst	0x00000000 ; undefined
    7820:	00005020 	.inst	0x00005020 ; undefined
    7824:	00000000 	.inst	0x00000000 ; undefined
    7828:	00005020 	.inst	0x00005020 ; undefined
    782c:	00000000 	.inst	0x00000000 ; undefined
    7830:	00005020 	.inst	0x00005020 ; undefined
    7834:	00000000 	.inst	0x00000000 ; undefined
    7838:	00005020 	.inst	0x00005020 ; undefined
    783c:	00000000 	.inst	0x00000000 ; undefined
    7840:	00005020 	.inst	0x00005020 ; undefined
    7844:	00000000 	.inst	0x00000000 ; undefined
    7848:	00005020 	.inst	0x00005020 ; undefined
    784c:	00000000 	.inst	0x00000000 ; undefined
    7850:	00005020 	.inst	0x00005020 ; undefined
    7854:	00000000 	.inst	0x00000000 ; undefined
    7858:	00005020 	.inst	0x00005020 ; undefined
    785c:	00000000 	.inst	0x00000000 ; undefined
    7860:	00005020 	.inst	0x00005020 ; undefined
    7864:	00000000 	.inst	0x00000000 ; undefined
    7868:	00005020 	.inst	0x00005020 ; undefined
    786c:	00000000 	.inst	0x00000000 ; undefined
    7870:	00005020 	.inst	0x00005020 ; undefined
    7874:	00000000 	.inst	0x00000000 ; undefined
    7878:	00005020 	.inst	0x00005020 ; undefined
    787c:	00000000 	.inst	0x00000000 ; undefined
    7880:	00005020 	.inst	0x00005020 ; undefined
    7884:	00000000 	.inst	0x00000000 ; undefined
    7888:	00005020 	.inst	0x00005020 ; undefined
    788c:	00000000 	.inst	0x00000000 ; undefined
    7890:	00005020 	.inst	0x00005020 ; undefined
    7894:	00000000 	.inst	0x00000000 ; undefined
    7898:	00005020 	.inst	0x00005020 ; undefined
    789c:	00000000 	.inst	0x00000000 ; undefined
    78a0:	00005020 	.inst	0x00005020 ; undefined
    78a4:	00000000 	.inst	0x00000000 ; undefined
    78a8:	00005020 	.inst	0x00005020 ; undefined
    78ac:	00000000 	.inst	0x00000000 ; undefined
    78b0:	00005020 	.inst	0x00005020 ; undefined
    78b4:	00000000 	.inst	0x00000000 ; undefined
    78b8:	00005020 	.inst	0x00005020 ; undefined
    78bc:	00000000 	.inst	0x00000000 ; undefined
    78c0:	00005020 	.inst	0x00005020 ; undefined
    78c4:	00000000 	.inst	0x00000000 ; undefined
    78c8:	00005020 	.inst	0x00005020 ; undefined
    78cc:	00000000 	.inst	0x00000000 ; undefined
    78d0:	00005020 	.inst	0x00005020 ; undefined
    78d4:	00000000 	.inst	0x00000000 ; undefined
    78d8:	00005020 	.inst	0x00005020 ; undefined
    78dc:	00000000 	.inst	0x00000000 ; undefined
    78e0:	00005020 	.inst	0x00005020 ; undefined
    78e4:	00000000 	.inst	0x00000000 ; undefined
    78e8:	00005020 	.inst	0x00005020 ; undefined
    78ec:	00000000 	.inst	0x00000000 ; undefined
    78f0:	00005020 	.inst	0x00005020 ; undefined
    78f4:	00000000 	.inst	0x00000000 ; undefined
    78f8:	00005020 	.inst	0x00005020 ; undefined
    78fc:	00000000 	.inst	0x00000000 ; undefined
    7900:	00005020 	.inst	0x00005020 ; undefined
    7904:	00000000 	.inst	0x00000000 ; undefined
    7908:	00005020 	.inst	0x00005020 ; undefined
    790c:	00000000 	.inst	0x00000000 ; undefined
    7910:	00005020 	.inst	0x00005020 ; undefined
    7914:	00000000 	.inst	0x00000000 ; undefined
    7918:	00005020 	.inst	0x00005020 ; undefined
    791c:	00000000 	.inst	0x00000000 ; undefined
    7920:	00005020 	.inst	0x00005020 ; undefined
    7924:	00000000 	.inst	0x00000000 ; undefined
    7928:	00005020 	.inst	0x00005020 ; undefined
    792c:	00000000 	.inst	0x00000000 ; undefined
    7930:	00005020 	.inst	0x00005020 ; undefined
    7934:	00000000 	.inst	0x00000000 ; undefined
    7938:	00005020 	.inst	0x00005020 ; undefined
    793c:	00000000 	.inst	0x00000000 ; undefined
    7940:	00005020 	.inst	0x00005020 ; undefined
    7944:	00000000 	.inst	0x00000000 ; undefined
    7948:	00005020 	.inst	0x00005020 ; undefined
    794c:	00000000 	.inst	0x00000000 ; undefined
    7950:	00005020 	.inst	0x00005020 ; undefined
    7954:	00000000 	.inst	0x00000000 ; undefined
    7958:	00005020 	.inst	0x00005020 ; undefined
    795c:	00000000 	.inst	0x00000000 ; undefined
    7960:	00005020 	.inst	0x00005020 ; undefined
    7964:	00000000 	.inst	0x00000000 ; undefined
    7968:	00005020 	.inst	0x00005020 ; undefined
    796c:	00000000 	.inst	0x00000000 ; undefined

Disassembly of section .bss:

0000000000008000 <__bss_start@@Base>:
	...

Disassembly of section .gnu_debugdata:

0000000000000000 <.gnu_debugdata>:
   0:	587a37fd 	ldr	x29, f46fc <_end@@Base+0xec6c4>
   4:	0400005a 	.inst	0x0400005a ; undefined
   8:	46b4d6e6 	.inst	0x46b4d6e6 ; undefined
   c:	01210002 	.inst	0x01210002 ; undefined
  10:	00000016 	.inst	0x00000016 ; undefined
  14:	a3e52f74 	.inst	0xa3e52f74 ; undefined
  18:	06a723e0 	.inst	0x06a723e0 ; undefined
  1c:	3f005da1 	.inst	0x3f005da1 ; undefined
  20:	68844591 	.inst	0x68844591 ; undefined
  24:	daa6893d 	.inst	0xdaa6893d ; undefined
  28:	2286e18a 	.inst	0x2286e18a ; undefined
  2c:	638ccda2 	.inst	0x638ccda2 ; undefined
  30:	6a70fa1a 	.inst	0x6a70fa1a ; undefined
  34:	e0f76310 	.inst	0xe0f76310 ; undefined
  38:	fee3bfde 	.inst	0xfee3bfde ; undefined
  3c:	a573b671 	.inst	0xa573b671 ; undefined
  40:	e38e55eb 	.inst	0xe38e55eb ; undefined
  44:	3c0ce8d4 	.inst	0x3c0ce8d4 ; undefined
  48:	9f19cbb3 	.inst	0x9f19cbb3 ; undefined
  4c:	a92077a8 	stp	x8, x29, [x29,#-512]
  50:	3a81d62c 	.inst	0x3a81d62c ; undefined
  54:	61d60fab 	.inst	0x61d60fab ; undefined
  58:	5b14b6f0 	.inst	0x5b14b6f0 ; undefined
  5c:	d53978f2 	mrs	x18, s3_1_c7_c8_7
  60:	b28ff493 	.inst	0xb28ff493 ; undefined
  64:	b2b5a92f 	.inst	0xb2b5a92f ; undefined
  68:	71c870c2 	.inst	0x71c870c2 ; undefined
  6c:	ff9597ac 	.inst	0xff9597ac ; undefined
  70:	223a4d5e 	.inst	0x223a4d5e ; undefined
  74:	caf39c3f 	eon	xzr, x1, x19, ror #39
  78:	65f6110c 	.inst	0x65f6110c ; undefined
  7c:	bac00d42 	.inst	0xbac00d42 ; undefined
  80:	ca6845fd 	eon	x29, x15, x8, lsr #17
  84:	397b4437 	ldrb	w23, [x1,#3793]
  88:	2695b324 	.inst	0x2695b324 ; undefined
  8c:	85eade02 	.inst	0x85eade02 ; undefined
  90:	2a339325 	.inst	0x2a339325 ; undefined
  94:	e89ba02a 	.inst	0xe89ba02a ; undefined
  98:	ebd2722d 	.inst	0xebd2722d ; undefined
  9c:	04f4829b 	.inst	0x04f4829b ; undefined
  a0:	ff62486f 	.inst	0xff62486f ; undefined
  a4:	473c055b 	.inst	0x473c055b ; undefined
  a8:	7fa5cf96 	.inst	0x7fa5cf96 ; undefined
  ac:	eb0447c0 	subs	x0, x30, x4, lsl #17
  b0:	2cd7c7c6 	ldp	s6, s17, [x30],#188
  b4:	20686ed8 	.inst	0x20686ed8 ; undefined
  b8:	5c1dcda6 	ldr	d6, 3ba6c <_end@@Base+0x33a34>
  bc:	d7df243c 	.inst	0xd7df243c ; undefined
  c0:	97906b02 	bl	fffffffffe41acc8 <_end@@Base+0xfffffffffe412c90>
  c4:	ad6b4850 	ldp	q16, q18, [x2,#-672]
  c8:	28e3d33f 	ldp	wzr, w20, [x25],#-228
  cc:	f0d83460 	adrp	x0, ffffffffb068f000 <_end@@Base+0xffffffffb0686fc8>
  d0:	04b68a30 	.inst	0x04b68a30 ; undefined
  d4:	a13c3b62 	.inst	0xa13c3b62 ; undefined
  d8:	45bf6c30 	.inst	0x45bf6c30 ; undefined
  dc:	f1de0dc5 	.inst	0xf1de0dc5 ; undefined
  e0:	c18cb391 	.inst	0xc18cb391 ; undefined
  e4:	0f249a64 	.inst	0x0f249a64 ; undefined
  e8:	be6ec34c 	.inst	0xbe6ec34c ; undefined
  ec:	647ae5c7 	.inst	0x647ae5c7 ; undefined
  f0:	b0f0a4b6 	adrp	x22, ffffffffe1495000 <_end@@Base+0xffffffffe148cfc8>
  f4:	2bdcdfa7 	.inst	0x2bdcdfa7 ; undefined
  f8:	75296202 	.inst	0x75296202 ; undefined
  fc:	ec40dcc7 	.inst	0xec40dcc7 ; undefined
 100:	58d64b11 	ldr	x17, fffffffffffaca60 <_end@@Base+0xfffffffffffa4a28>
 104:	d89761c7 	prfm	#0x07, fffffffffff2ed3c <_end@@Base+0xfffffffffff26d04>
 108:	823f8007 	.inst	0x823f8007 ; undefined
 10c:	c9786a30 	.inst	0xc9786a30 ; undefined
 110:	aaffc819 	orn	x25, x0, xzr, ror #50
 114:	2abf8b79 	.inst	0x2abf8b79 ; undefined
 118:	51b790b9 	.inst	0x51b790b9 ; undefined
 11c:	2025ebd7 	.inst	0x2025ebd7 ; undefined
 120:	30479652 	adr	x18, 8f3e9 <_end@@Base+0x873b1>
 124:	bb612a34 	.inst	0xbb612a34 ; undefined
 128:	7ac93d4d 	.inst	0x7ac93d4d ; undefined
 12c:	aff2c3ce 	.inst	0xaff2c3ce ; undefined
 130:	49894d38 	.inst	0x49894d38 ; undefined
 134:	84d2b820 	.inst	0x84d2b820 ; undefined
 138:	e2aeda17 	.inst	0xe2aeda17 ; undefined
 13c:	f71678a1 	.inst	0xf71678a1 ; undefined
 140:	eda2baf8 	.inst	0xeda2baf8 ; undefined
 144:	7cf55578 	.inst	0x7cf55578 ; undefined
 148:	6d923019 	stp	d25, d12, [x0,#288]!
 14c:	ff679f61 	.inst	0xff679f61 ; undefined
 150:	84007b37 	.inst	0x84007b37 ; undefined
 154:	39aef4db 	ldrsb	x27, [x6,#3005]
 158:	556290f5 	.inst	0x556290f5 ; undefined
 15c:	6754d075 	.inst	0x6754d075 ; undefined
 160:	adffa447 	ldp	q7, q9, [x2,#-16]!
 164:	8ada20fd 	and	x29, x7, x26, ror #8
 168:	e9a70e04 	.inst	0xe9a70e04 ; undefined
 16c:	b0b3cdf4 	adrp	x20, ffffffff679bd000 <_end@@Base+0xffffffff679b4fc8>
 170:	83d7c0e9 	.inst	0x83d7c0e9 ; undefined
 174:	8555b75d 	.inst	0x8555b75d ; undefined
 178:	1f7fd9af 	fnmsub	d15, d13, d31, d22
 17c:	9de01067 	.inst	0x9de01067 ; undefined
 180:	58570941 	ldr	x1, ae2a8 <_end@@Base+0xa6270>
 184:	2e037e36 	.inst	0x2e037e36 ; undefined
 188:	2dea2619 	ldp	s25, s9, [x16,#-176]!
 18c:	5924fe00 	.inst	0x5924fe00 ; undefined
 190:	97215653 	bl	fffffffffc855adc <_end@@Base+0xfffffffffc84daa4>
 194:	1c286ddd 	ldr	s29, 50f4c <_end@@Base+0x48f14>
 198:	917d788a 	add	x10, x4, #0xf5e, lsl #12
 19c:	8dcd0a8a 	.inst	0x8dcd0a8a ; undefined
 1a0:	6afd7767 	bics	w7, w27, w29, ror #29
 1a4:	269cf88a 	.inst	0x269cf88a ; undefined
 1a8:	e835a3c7 	.inst	0xe835a3c7 ; undefined
 1ac:	16633935 	b	fffffffff98ce680 <_end@@Base+0xfffffffff98c6648>
 1b0:	c5e2b768 	.inst	0xc5e2b768 ; undefined
 1b4:	7cec81b0 	.inst	0x7cec81b0 ; undefined
 1b8:	1db2cbb4 	.inst	0x1db2cbb4 ; undefined
 1bc:	ef0f3342 	.inst	0xef0f3342 ; undefined
 1c0:	cb833669 	sub	x9, x19, x3, asr #13
 1c4:	b3c29193 	.inst	0xb3c29193 ; undefined
 1c8:	d1c6e34c 	.inst	0xd1c6e34c ; undefined
 1cc:	cb69415c 	.inst	0xcb69415c ; undefined
 1d0:	547fd78f 	b.nv	ffcc0 <_end@@Base+0xf7c88>
 1d4:	2868edaa 	ldnp	w10, w27, [x13,#-188]
 1d8:	c0bc4f0f 	.inst	0xc0bc4f0f ; undefined
 1dc:	434cc66c 	.inst	0x434cc66c ; undefined
 1e0:	6b6f4bc0 	.inst	0x6b6f4bc0 ; undefined
 1e4:	43308007 	.inst	0x43308007 ; undefined
 1e8:	071fa9f4 	.inst	0x071fa9f4 ; undefined
 1ec:	82499417 	.inst	0x82499417 ; undefined
 1f0:	db13e5cf 	.inst	0xdb13e5cf ; undefined
 1f4:	d0f2ee67 	adrp	x7, ffffffffe5dce000 <_end@@Base+0xffffffffe5dc5fc8>
 1f8:	8e1e5271 	.inst	0x8e1e5271 ; undefined
 1fc:	a980ccc1 	stp	x1, x19, [x6,#8]!
 200:	36d54724 	tbz	w4, #26, ffffffffffffaae4 <_end@@Base+0xffffffffffff2aac>
 204:	1dca9fdf 	.inst	0x1dca9fdf ; undefined
 208:	94db40ed 	bl	36d05bc <_end@@Base+0x36c8584>
 20c:	0ee7d7b6 	.inst	0x0ee7d7b6 ; undefined
 210:	16de843b 	b	fffffffffb7a12fc <_end@@Base+0xfffffffffb7992c4>
 214:	4ebd5e0f 	sqrshl	v15.4s, v16.4s, v29.4s
 218:	658ef9ca 	.inst	0x658ef9ca ; undefined
 21c:	2bb5f75d 	.inst	0x2bb5f75d ; undefined
 220:	37928d9d 	tbnz	w29, #18, 53d0 <_ZN7android8String16C1EPKc@plt+0x40>
 224:	0ac404ef 	and	w15, w7, w4, ror #1
 228:	2d7ee6ee 	ldp	s14, s25, [x23,#-12]
 22c:	2bf7a3ef 	.inst	0x2bf7a3ef ; undefined
 230:	051e9119 	.inst	0x051e9119 ; undefined
 234:	5d15e620 	.inst	0x5d15e620 ; undefined
 238:	5e803e12 	.inst	0x5e803e12 ; undefined
 23c:	54268315 	.inst	0x54268315 ; undefined
 240:	b471ddcd 	cbz	x13, e3df8 <_end@@Base+0xdbdc0>
 244:	fac9dff9 	.inst	0xfac9dff9 ; undefined
 248:	20a810f1 	.inst	0x20a810f1 ; undefined
 24c:	96267851 	bl	fffffffff899e390 <_end@@Base+0xfffffffff8996358>
 250:	36aa809b 	tbz	w27, #21, 5260 <_ZN7android10IInterfaceC2Ev@plt>
 254:	7f6c7f8f 	.inst	0x7f6c7f8f ; undefined
 258:	a0d0f5b1 	.inst	0xa0d0f5b1 ; undefined
 25c:	c28d20ce 	.inst	0xc28d20ce ; undefined
 260:	58043fb5 	ldr	x21, 8a54 <_end@@Base+0xa1c>
 264:	0e1149ce 	.inst	0x0e1149ce ; undefined
 268:	8668b405 	.inst	0x8668b405 ; undefined
 26c:	cd6c71cf 	.inst	0xcd6c71cf ; undefined
 270:	a914ecce 	stp	x14, x27, [x6,#328]
 274:	a8ca0122 	ldp	x2, x0, [x9],#160
 278:	da86e163 	csinv	x3, x11, x6, al
 27c:	e415d5d2 	.inst	0xe415d5d2 ; undefined
 280:	6df5c76a 	ldp	d10, d17, [x27,#-168]!
 284:	c412016e 	.inst	0xc412016e ; undefined
 288:	0f3a600d 	.inst	0x0f3a600d ; undefined
 28c:	cdd6418a 	.inst	0xcdd6418a ; undefined
 290:	fc9afa51 	.inst	0xfc9afa51 ; undefined
 294:	ef2cc9dc 	.inst	0xef2cc9dc ; undefined
 298:	540b8974 	.inst	0x540b8974 ; undefined
 29c:	edcc2969 	.inst	0xedcc2969 ; undefined
 2a0:	b55bb50d 	cbnz	x13, b7940 <_end@@Base+0xaf908>
 2a4:	1f0a235b 	fmadd	s27, s26, s10, s8
 2a8:	f2a913f1 	movk	x17, #0x489f, lsl #16
 2ac:	f69f5484 	.inst	0xf69f5484 ; undefined
 2b0:	afb64d74 	.inst	0xafb64d74 ; undefined
 2b4:	f3a01863 	.inst	0xf3a01863 ; undefined
 2b8:	51b81810 	.inst	0x51b81810 ; undefined
 2bc:	66c48bec 	.inst	0x66c48bec ; undefined
 2c0:	5e8f7497 	.inst	0x5e8f7497 ; undefined
 2c4:	1818e8c6 	ldr	w6, 31fdc <_end@@Base+0x29fa4>
 2c8:	77918bc5 	.inst	0x77918bc5 ; undefined
 2cc:	a05682e1 	.inst	0xa05682e1 ; undefined
 2d0:	973cd4fe 	bl	fffffffffcf356c8 <_end@@Base+0xfffffffffcf2d690>
 2d4:	487ad1b8 	.inst	0x487ad1b8 ; undefined
 2d8:	6af5efbe 	.inst	0x6af5efbe ; undefined
 2dc:	7c84b041 	.inst	0x7c84b041 ; undefined
 2e0:	c609df3f 	.inst	0xc609df3f ; undefined
 2e4:	dc8957cf 	.inst	0xdc8957cf ; undefined
 2e8:	acde46bf 	ldp	q31, q17, [x21],#960
 2ec:	65715a55 	.inst	0x65715a55 ; undefined
 2f0:	8fd0c313 	.inst	0x8fd0c313 ; undefined
 2f4:	b58cdcfb 	cbnz	x27, fffffffffff19e90 <_end@@Base+0xfffffffffff11e58>
 2f8:	15397ab8 	b	4e5edd8 <_end@@Base+0x4e56da0>
 2fc:	93bbf823 	.inst	0x93bbf823 ; undefined
 300:	84d45330 	.inst	0x84d45330 ; undefined
 304:	6b5877b3 	subs	w19, w29, w24, lsr #29
 308:	420dd101 	.inst	0x420dd101 ; undefined
 30c:	bbd79e03 	.inst	0xbbd79e03 ; undefined
 310:	a3a93a26 	.inst	0xa3a93a26 ; undefined
 314:	93d3db53 	extr	x19, x26, x19, #54
 318:	e0caba6a 	.inst	0xe0caba6a ; undefined
 31c:	d4d93790 	.inst	0xd4d93790 ; undefined
 320:	11c63aa3 	.inst	0x11c63aa3 ; undefined
 324:	c137d0cc 	.inst	0xc137d0cc ; undefined
 328:	37dd5013 	tbnz	w19, #27, ffffffffffffad28 <_end@@Base+0xffffffffffff2cf0>
 32c:	e54ef894 	.inst	0xe54ef894 ; undefined
 330:	5aeef2a8 	.inst	0x5aeef2a8 ; undefined
 334:	b7db73f7 	tbnz	x23, #59, 71b0 <_ZN7android8String16C1EPKc@plt+0x1e20>
 338:	fe7a4498 	.inst	0xfe7a4498 ; undefined
 33c:	ddcc7212 	.inst	0xddcc7212 ; undefined
 340:	32744080 	.inst	0x32744080 ; undefined
 344:	a38c34b0 	.inst	0xa38c34b0 ; undefined
 348:	4c136718 	.inst	0x4c136718 ; undefined
 34c:	d395a7dd 	.inst	0xd395a7dd ; undefined
 350:	33a16216 	.inst	0x33a16216 ; undefined
 354:	85a5eef4 	.inst	0x85a5eef4 ; undefined
 358:	165abff9 	b	fffffffff96b033c <_end@@Base+0xfffffffff96a8304>
 35c:	277010e7 	.inst	0x277010e7 ; undefined
 360:	c5ff6c91 	.inst	0xc5ff6c91 ; undefined
 364:	7cc59e20 	.inst	0x7cc59e20 ; undefined
 368:	4eb8cfc7 	fmls	v7.4s, v30.4s, v24.4s
 36c:	5c4e1535 	ldr	d21, 9c610 <_end@@Base+0x945d8>
 370:	0b438ef6 	.inst	0x0b438ef6 ; undefined
 374:	97808ba3 	bl	fffffffffe023200 <_end@@Base+0xfffffffffe01b1c8>
 378:	5f17e68d 	scvtf	h13, h20, #9
 37c:	8ef82c44 	.inst	0x8ef82c44 ; undefined
 380:	bf29aafb 	.inst	0xbf29aafb ; undefined
 384:	0a3d185f 	bic	wzr, w2, w29, lsl #6
 388:	cee2b7b4 	.inst	0xcee2b7b4 ; undefined
 38c:	fd58d991 	ldr	d17, [x12,#12720]
 390:	a4758bea 	.inst	0xa4758bea ; undefined
 394:	b21b7f96 	.inst	0xb21b7f96 ; undefined
 398:	1c7521ae 	ldr	s14, ea7cc <_end@@Base+0xe2794>
 39c:	8ba25421 	.inst	0x8ba25421 ; undefined
 3a0:	d29bb5d2 	mov	x18, #0xddae                	// #56750
 3a4:	2b7e2aed 	.inst	0x2b7e2aed ; undefined
 3a8:	f1fb9ee3 	.inst	0xf1fb9ee3 ; undefined
 3ac:	24bc8a9a 	.inst	0x24bc8a9a ; undefined
 3b0:	633ce48f 	.inst	0x633ce48f ; undefined
 3b4:	79fe97e4 	ldrsh	w4, [sp,#8010]
 3b8:	20e1e5e6 	.inst	0x20e1e5e6 ; undefined
 3bc:	6817996b 	.inst	0x6817996b ; undefined
 3c0:	16ed95ab 	b	fffffffffbb65a6c <_end@@Base+0xfffffffffbb5da34>
 3c4:	785b51a4 	ldurh	w4, [x13,#-75]
 3c8:	dff6dbfa 	.inst	0xdff6dbfa ; undefined
 3cc:	57f4c12e 	.inst	0x57f4c12e ; undefined
 3d0:	479029b1 	.inst	0x479029b1 ; undefined
 3d4:	4071678c 	.inst	0x4071678c ; undefined
 3d8:	44ddbb59 	.inst	0x44ddbb59 ; undefined
 3dc:	5392dc23 	.inst	0x5392dc23 ; undefined
 3e0:	0e7e9e5a 	mul	v26.4h, v18.4h, v30.4h
 3e4:	9a726f5a 	.inst	0x9a726f5a ; undefined
 3e8:	f06b752c 	adrp	x12, d6ea7000 <_end@@Base+0xd6e9efc8>
 3ec:	fd1898bf 	str	d31, [x5,#12592]
 3f0:	813a65d5 	.inst	0x813a65d5 ; undefined
 3f4:	1cafe5fb 	ldr	s27, fffffffffff600b0 <_end@@Base+0xfffffffffff58078>
 3f8:	12467576 	.inst	0x12467576 ; undefined
 3fc:	53613e84 	.inst	0x53613e84 ; undefined
 400:	7dd65a38 	.inst	0x7dd65a38 ; undefined
 404:	8d54ce43 	.inst	0x8d54ce43 ; undefined
 408:	e3129d70 	.inst	0xe3129d70 ; undefined
 40c:	1472c69e 	b	1cb1e84 <_end@@Base+0x1ca9e4c>
 410:	307d3f47 	adr	x7, fabf9 <_end@@Base+0xf2bc1>
 414:	dbe290f8 	.inst	0xdbe290f8 ; undefined
 418:	000b595e 	.inst	0x000b595e ; undefined
 41c:	f89b6e56 	.inst	0xf89b6e56 ; undefined
 420:	a514b946 	.inst	0xa514b946 ; undefined
 424:	8fca6c7e 	.inst	0x8fca6c7e ; undefined
 428:	9a483f89 	.inst	0x9a483f89 ; undefined
 42c:	22025881 	.inst	0x22025881 ; undefined
 430:	c859fd87 	ldaxr	x7, [x12]
 434:	28087585 	stnp	w5, w29, [x12,#64]
 438:	99e1d370 	.inst	0x99e1d370 ; undefined
 43c:	ed7772b0 	.inst	0xed7772b0 ; undefined
 440:	2b40ea4e 	.inst	0x2b40ea4e ; undefined
 444:	fbfdaa47 	.inst	0xfbfdaa47 ; undefined
 448:	64c402b8 	.inst	0x64c402b8 ; undefined
 44c:	6a1384ff 	.inst	0x6a1384ff ; undefined
 450:	dc66fb61 	.inst	0xdc66fb61 ; undefined
 454:	9c66ec9e 	ldr	q30, ce1e4 <_end@@Base+0xc61ac>
 458:	428480f3 	.inst	0x428480f3 ; undefined
 45c:	d9c37a8c 	.inst	0xd9c37a8c ; undefined
 460:	81f95741 	.inst	0x81f95741 ; undefined
 464:	8ef43ae2 	.inst	0x8ef43ae2 ; undefined
 468:	713920d0 	subs	w16, w6, #0xe48
 46c:	2fe53844 	.inst	0x2fe53844 ; undefined
 470:	8e8c26d4 	.inst	0x8e8c26d4 ; undefined
 474:	6f71a7c9 	.inst	0x6f71a7c9 ; undefined
 478:	3ac355f1 	.inst	0x3ac355f1 ; undefined
 47c:	6ad35fc1 	ands	w1, w30, w19, ror #23
 480:	391bc4b9 	strb	w25, [x5,#1777]
 484:	c0683958 	.inst	0xc0683958 ; undefined
 488:	95fbd910 	bl	7ef68c8 <_end@@Base+0x7eee890>
 48c:	accdedbe 	ldp	q30, q27, [x13],#432
 490:	9e6c004c 	.inst	0x9e6c004c ; undefined
 494:	38a6cac7 	ldrsb	x7, [x22,w6,sxtw]
 498:	3b31086a 	.inst	0x3b31086a ; undefined
 49c:	9e6e7068 	.inst	0x9e6e7068 ; undefined
 4a0:	e6a8490e 	.inst	0xe6a8490e ; undefined
 4a4:	026d09a0 	.inst	0x026d09a0 ; undefined
 4a8:	447b93eb 	.inst	0x447b93eb ; undefined
 4ac:	fc797fda 	.inst	0xfc797fda ; undefined
 4b0:	334c88c0 	.inst	0x334c88c0 ; undefined
 4b4:	e0e261fe 	.inst	0xe0e261fe ; undefined
 4b8:	e6fe70b3 	.inst	0xe6fe70b3 ; undefined
 4bc:	bfbf48f8 	.inst	0xbfbf48f8 ; undefined
 4c0:	70e8cd03 	adr	x3, fffffffffffd1e63 <_end@@Base+0xfffffffffffc9e2b>
 4c4:	4c02338c 	.inst	0x4c02338c ; undefined
 4c8:	bc9de071 	.inst	0xbc9de071 ; undefined
 4cc:	38e6280f 	.inst	0x38e6280f ; undefined
 4d0:	a0acf91f 	.inst	0xa0acf91f ; undefined
 4d4:	937e1dcc 	sbfiz	x12, x14, #2, #8
 4d8:	81384a8b 	.inst	0x81384a8b ; undefined
 4dc:	e204bea8 	.inst	0xe204bea8 ; undefined
 4e0:	95d8038e 	bl	7601318 <_end@@Base+0x75f92e0>
 4e4:	20e524b3 	.inst	0x20e524b3 ; undefined
 4e8:	8b025266 	add	x6, x19, x2, lsl #20
 4ec:	84996484 	.inst	0x84996484 ; undefined
 4f0:	84d9f4cc 	.inst	0x84d9f4cc ; undefined
 4f4:	2d3b4e03 	stp	s3, s19, [x16,#-40]
 4f8:	8ee508f0 	.inst	0x8ee508f0 ; undefined
 4fc:	34c2e344 	cbz	w4, fffffffffff86164 <_end@@Base+0xfffffffffff7e12c>
 500:	b42db237 	cbz	x23, 5bb44 <_end@@Base+0x53b0c>
 504:	b6daa7bc 	tbz	x28, #59, 59f8 <_ZN7android8String16C1EPKc@plt+0x668>
 508:	b516e703 	cbnz	x3, 2e1e8 <_end@@Base+0x261b0>
 50c:	b94aef03 	ldr	w3, [x24,#2796]
 510:	7b846d1c 	.inst	0x7b846d1c ; undefined
 514:	278709f0 	.inst	0x278709f0 ; undefined
 518:	fe0b7342 	.inst	0xfe0b7342 ; undefined
 51c:	e9f114db 	.inst	0xe9f114db ; undefined
 520:	2f0968f1 	.inst	0x2f0968f1 ; undefined
 524:	f899de87 	.inst	0xf899de87 ; undefined
 528:	e75c5b14 	.inst	0xe75c5b14 ; undefined
 52c:	db019655 	.inst	0xdb019655 ; undefined
 530:	6d9f8eb7 	stp	d23, d3, [x21,#504]!
 534:	abfc8e46 	.inst	0xabfc8e46 ; undefined
 538:	0a9e87eb 	.inst	0x0a9e87eb ; undefined
 53c:	8950b717 	.inst	0x8950b717 ; undefined
 540:	86b3c4e6 	.inst	0x86b3c4e6 ; undefined
 544:	ba76403a 	.inst	0xba76403a ; undefined
 548:	45ed9e15 	.inst	0x45ed9e15 ; undefined
 54c:	8bad2424 	.inst	0x8bad2424 ; undefined
 550:	ccda4d99 	.inst	0xccda4d99 ; undefined
 554:	29d3db27 	ldp	w7, w22, [x25,#156]!
 558:	f3410bea 	.inst	0xf3410bea ; undefined
 55c:	9b672171 	.inst	0x9b672171 ; undefined
 560:	abd2106d 	.inst	0xabd2106d ; undefined
 564:	741767e4 	.inst	0x741767e4 ; undefined
 568:	f3307b8b 	.inst	0xf3307b8b ; undefined
 56c:	9238df8a 	.inst	0x9238df8a ; undefined
 570:	6a6a80a2 	.inst	0x6a6a80a2 ; undefined
 574:	536ef8fa 	.inst	0x536ef8fa ; undefined
 578:	abed2715 	.inst	0xabed2715 ; undefined
 57c:	b5b378ce 	cbnz	x14, fffffffffff67494 <_end@@Base+0xfffffffffff5f45c>
 580:	f9666c3e 	ldr	x30, [x1,#19672]
 584:	3519c7b0 	cbnz	w16, 33e78 <_end@@Base+0x2be40>
 588:	b77c377a 	tbnz	x26, #47, ffffffffffff8c74 <_end@@Base+0xffffffffffff0c3c>
 58c:	21721288 	.inst	0x21721288 ; undefined
 590:	739053a4 	.inst	0x739053a4 ; undefined
 594:	d294a532 	mov	x18, #0xa529                	// #42281
 598:	05ce6966 	.inst	0x05ce6966 ; undefined
 59c:	c5efa071 	.inst	0xc5efa071 ; undefined
 5a0:	3c9ffdef 	str	q15, [x15,#-1]!
 5a4:	5bae87e2 	.inst	0x5bae87e2 ; undefined
 5a8:	7e1a7e89 	.inst	0x7e1a7e89 ; undefined
 5ac:	2ba50a8b 	.inst	0x2ba50a8b ; undefined
 5b0:	6f3c8cbc 	sqrshrun2	v28.4s, v5.2d, #4
 5b4:	1dac0b9f 	.inst	0x1dac0b9f ; undefined
 5b8:	b2f169fe 	.inst	0xb2f169fe ; undefined
 5bc:	f6345891 	.inst	0xf6345891 ; undefined
 5c0:	1e20b8c4 	.inst	0x1e20b8c4 ; undefined
 5c4:	f84b7157 	ldur	x23, [x10,#183]
 5c8:	c3cfe2b2 	.inst	0xc3cfe2b2 ; undefined
 5cc:	8b9b86ae 	add	x14, x21, x27, asr #33
 5d0:	54b39c45 	b.pl	fffffffffff67958 <_end@@Base+0xfffffffffff5f920>
 5d4:	9ae0bbb1 	.inst	0x9ae0bbb1 ; undefined
 5d8:	34d33ae6 	cbz	w6, fffffffffffa6d34 <_end@@Base+0xfffffffffff9ecfc>
 5dc:	e3072353 	.inst	0xe3072353 ; undefined
 5e0:	e7c07d94 	.inst	0xe7c07d94 ; undefined
 5e4:	6343518a 	.inst	0x6343518a ; undefined
 5e8:	afb9fba6 	.inst	0xafb9fba6 ; undefined
 5ec:	cb55582a 	sub	x10, x1, x21, lsr #22
 5f0:	fb521a84 	.inst	0xfb521a84 ; undefined
 5f4:	650a35e0 	.inst	0x650a35e0 ; undefined
 5f8:	fc209642 	.inst	0xfc209642 ; undefined
 5fc:	189a8b12 	ldr	w18, fffffffffff3575c <_end@@Base+0xfffffffffff2d724>
 600:	8980d697 	.inst	0x8980d697 ; undefined
 604:	16f11d4f 	b	fffffffffbc47b40 <_end@@Base+0xfffffffffbc3fb08>
 608:	4bfeb1e7 	.inst	0x4bfeb1e7 ; undefined
 60c:	7619405e 	.inst	0x7619405e ; undefined
 610:	976d91d7 	bl	fffffffffdb64d6c <_end@@Base+0xfffffffffdb5cd34>
 614:	fc1e3a33 	.inst	0xfc1e3a33 ; undefined
 618:	52c15484 	.inst	0x52c15484 ; undefined
 61c:	065709d9 	.inst	0x065709d9 ; undefined
 620:	b8c63f25 	.inst	0xb8c63f25 ; undefined
 624:	202535f1 	.inst	0x202535f1 ; undefined
 628:	73a34df1 	.inst	0x73a34df1 ; undefined
 62c:	c7fa2eb1 	.inst	0xc7fa2eb1 ; undefined
 630:	bef5c6b6 	.inst	0xbef5c6b6 ; undefined
 634:	9d5fb84e 	.inst	0x9d5fb84e ; undefined
 638:	4be3f8ef 	.inst	0x4be3f8ef ; undefined
 63c:	653a1072 	.inst	0x653a1072 ; undefined
 640:	e88220d3 	.inst	0xe88220d3 ; undefined
 644:	8d0e7ace 	.inst	0x8d0e7ace ; undefined
 648:	faf17caf 	.inst	0xfaf17caf ; undefined
 64c:	7c01480d 	.inst	0x7c01480d ; undefined
 650:	23717f27 	.inst	0x23717f27 ; undefined
 654:	b14c3f7d 	adds	x29, x27, #0x30f, lsl #12
 658:	0504f8ef 	.inst	0x0504f8ef ; undefined
 65c:	1b4c6c99 	.inst	0x1b4c6c99 ; undefined
 660:	70c130b2 	adr	x18, fffffffffff82c77 <_end@@Base+0xfffffffffff7ac3f>
 664:	807f4c5d 	.inst	0x807f4c5d ; undefined
 668:	6558477d 	.inst	0x6558477d ; undefined
 66c:	9089dbd1 	adrp	x17, ffffffff13b78000 <_end@@Base+0xffffffff13b6ffc8>
 670:	39d6db7f 	ldrsb	wzr, [x27,#1462]
 674:	63c33a2b 	.inst	0x63c33a2b ; undefined
 678:	be968a5c 	.inst	0xbe968a5c ; undefined
 67c:	95e0ae02 	bl	782be84 <_end@@Base+0x7823e4c>
 680:	baa24dac 	.inst	0xbaa24dac ; undefined
 684:	3186a7a4 	.inst	0x3186a7a4 ; undefined
 688:	5d9277ea 	.inst	0x5d9277ea ; undefined
 68c:	c13e0177 	.inst	0xc13e0177 ; undefined
 690:	0d6dd598 	.inst	0x0d6dd598 ; undefined
 694:	e18c3b54 	.inst	0xe18c3b54 ; undefined
 698:	a3f6f78c 	.inst	0xa3f6f78c ; undefined
 69c:	c74f139d 	.inst	0xc74f139d ; undefined
 6a0:	98513f04 	ldrsw	x4, a2e80 <_end@@Base+0x9ae48>
 6a4:	b48a158f 	cbz	x15, fffffffffff14954 <_end@@Base+0xfffffffffff0c91c>
 6a8:	94c05b2d 	bl	301735c <_end@@Base+0x300f324>
 6ac:	d62dd5cc 	.inst	0xd62dd5cc ; undefined
 6b0:	ece59a8d 	.inst	0xece59a8d ; undefined
 6b4:	7164f73a 	subs	w26, w25, #0x93d, lsl #12
 6b8:	079bbc58 	.inst	0x079bbc58 ; undefined
 6bc:	a22a094a 	.inst	0xa22a094a ; undefined
 6c0:	00000000 	.inst	0x00000000 ; undefined
 6c4:	17f45516 	b	ffffffffffd15b1c <_end@@Base+0xffffffffffd0dae4>
 6c8:	f2f6d3a9 	movk	x9, #0xb69d, lsl #48
 6cc:	0dbd0100 	st2	{v0.b, v1.b}[0], [x8], x29
 6d0:	000047a8 	.inst	0x000047a8 ; undefined
 6d4:	609bba68 	.inst	0x609bba68 ; undefined
 6d8:	fb67c4b1 	.inst	0xfb67c4b1 ; undefined
 6dc:	00000002 	.inst	0x00000002 ; undefined
 6e0:	5a590400 	.inst	0x5a590400 ; undefined
