
x86_sample:     file format elf64-x86-64


Disassembly of section .init:

0000000000400728 <_init>:
  400728:	48 83 ec 08          	sub    $0x8,%rsp
  40072c:	48 8b 05 c5 18 20 00 	mov    0x2018c5(%rip),%rax        # 601ff8 <_DYNAMIC+0x200>
  400733:	48 85 c0             	test   %rax,%rax
  400736:	74 05                	je     40073d <_init+0x15>
  400738:	e8 c3 00 00 00       	callq  400800 <__libc_start_main@plt+0x10>
  40073d:	48 83 c4 08          	add    $0x8,%rsp
  400741:	c3                   	retq   

Disassembly of section .plt:

0000000000400750 <pthread_create@plt-0x10>:
  400750:	ff 35 b2 18 20 00    	pushq  0x2018b2(%rip)        # 602008 <_GLOBAL_OFFSET_TABLE_+0x8>
  400756:	ff 25 b4 18 20 00    	jmpq   *0x2018b4(%rip)        # 602010 <_GLOBAL_OFFSET_TABLE_+0x10>
  40075c:	0f 1f 40 00          	nopl   0x0(%rax)

0000000000400760 <pthread_create@plt>:
  400760:	ff 25 b2 18 20 00    	jmpq   *0x2018b2(%rip)        # 602018 <_GLOBAL_OFFSET_TABLE_+0x18>
  400766:	68 00 00 00 00       	pushq  $0x0
  40076b:	e9 e0 ff ff ff       	jmpq   400750 <_init+0x28>

0000000000400770 <localtime@plt>:
  400770:	ff 25 aa 18 20 00    	jmpq   *0x2018aa(%rip)        # 602020 <_GLOBAL_OFFSET_TABLE_+0x20>
  400776:	68 01 00 00 00       	pushq  $0x1
  40077b:	e9 d0 ff ff ff       	jmpq   400750 <_init+0x28>

0000000000400780 <sleep@plt>:
  400780:	ff 25 a2 18 20 00    	jmpq   *0x2018a2(%rip)        # 602028 <_GLOBAL_OFFSET_TABLE_+0x28>
  400786:	68 02 00 00 00       	pushq  $0x2
  40078b:	e9 c0 ff ff ff       	jmpq   400750 <_init+0x28>

0000000000400790 <memcpy@plt>:
  400790:	ff 25 9a 18 20 00    	jmpq   *0x20189a(%rip)        # 602030 <_GLOBAL_OFFSET_TABLE_+0x30>
  400796:	68 03 00 00 00       	pushq  $0x3
  40079b:	e9 b0 ff ff ff       	jmpq   400750 <_init+0x28>

00000000004007a0 <time@plt>:
  4007a0:	ff 25 92 18 20 00    	jmpq   *0x201892(%rip)        # 602038 <_GLOBAL_OFFSET_TABLE_+0x38>
  4007a6:	68 04 00 00 00       	pushq  $0x4
  4007ab:	e9 a0 ff ff ff       	jmpq   400750 <_init+0x28>

00000000004007b0 <__stack_chk_fail@plt>:
  4007b0:	ff 25 8a 18 20 00    	jmpq   *0x20188a(%rip)        # 602040 <_GLOBAL_OFFSET_TABLE_+0x40>
  4007b6:	68 05 00 00 00       	pushq  $0x5
  4007bb:	e9 90 ff ff ff       	jmpq   400750 <_init+0x28>

00000000004007c0 <puts@plt>:
  4007c0:	ff 25 82 18 20 00    	jmpq   *0x201882(%rip)        # 602048 <_GLOBAL_OFFSET_TABLE_+0x48>
  4007c6:	68 06 00 00 00       	pushq  $0x6
  4007cb:	e9 80 ff ff ff       	jmpq   400750 <_init+0x28>

00000000004007d0 <__gxx_personality_v0@plt>:
  4007d0:	ff 25 7a 18 20 00    	jmpq   *0x20187a(%rip)        # 602050 <_GLOBAL_OFFSET_TABLE_+0x50>
  4007d6:	68 07 00 00 00       	pushq  $0x7
  4007db:	e9 70 ff ff ff       	jmpq   400750 <_init+0x28>

00000000004007e0 <_Unwind_Resume@plt>:
  4007e0:	ff 25 72 18 20 00    	jmpq   *0x201872(%rip)        # 602058 <_GLOBAL_OFFSET_TABLE_+0x58>
  4007e6:	68 08 00 00 00       	pushq  $0x8
  4007eb:	e9 60 ff ff ff       	jmpq   400750 <_init+0x28>

00000000004007f0 <__libc_start_main@plt>:
  4007f0:	ff 25 6a 18 20 00    	jmpq   *0x20186a(%rip)        # 602060 <_GLOBAL_OFFSET_TABLE_+0x60>
  4007f6:	68 09 00 00 00       	pushq  $0x9
  4007fb:	e9 50 ff ff ff       	jmpq   400750 <_init+0x28>

Disassembly of section .plt.got:

0000000000400800 <.plt.got>:
  400800:	ff 25 f2 17 20 00    	jmpq   *0x2017f2(%rip)        # 601ff8 <_DYNAMIC+0x200>
  400806:	66 90                	xchg   %ax,%ax

Disassembly of section .text:

0000000000400810 <_start>:
  400810:	31 ed                	xor    %ebp,%ebp
  400812:	49 89 d1             	mov    %rdx,%r9
  400815:	5e                   	pop    %rsi
  400816:	48 89 e2             	mov    %rsp,%rdx
  400819:	48 83 e4 f0          	and    $0xfffffffffffffff0,%rsp
  40081d:	50                   	push   %rax
  40081e:	54                   	push   %rsp
  40081f:	49 c7 c0 a0 0b 40 00 	mov    $0x400ba0,%r8
  400826:	48 c7 c1 30 0b 40 00 	mov    $0x400b30,%rcx
  40082d:	48 c7 c7 06 09 40 00 	mov    $0x400906,%rdi
  400834:	e8 b7 ff ff ff       	callq  4007f0 <__libc_start_main@plt>
  400839:	f4                   	hlt    
  40083a:	66 0f 1f 44 00 00    	nopw   0x0(%rax,%rax,1)

0000000000400840 <deregister_tm_clones>:
  400840:	b8 7f 20 60 00       	mov    $0x60207f,%eax
  400845:	55                   	push   %rbp
  400846:	48 2d 78 20 60 00    	sub    $0x602078,%rax
  40084c:	48 83 f8 0e          	cmp    $0xe,%rax
  400850:	48 89 e5             	mov    %rsp,%rbp
  400853:	76 1b                	jbe    400870 <deregister_tm_clones+0x30>
  400855:	b8 00 00 00 00       	mov    $0x0,%eax
  40085a:	48 85 c0             	test   %rax,%rax
  40085d:	74 11                	je     400870 <deregister_tm_clones+0x30>
  40085f:	5d                   	pop    %rbp
  400860:	bf 78 20 60 00       	mov    $0x602078,%edi
  400865:	ff e0                	jmpq   *%rax
  400867:	66 0f 1f 84 00 00 00 	nopw   0x0(%rax,%rax,1)
  40086e:	00 00 
  400870:	5d                   	pop    %rbp
  400871:	c3                   	retq   
  400872:	0f 1f 40 00          	nopl   0x0(%rax)
  400876:	66 2e 0f 1f 84 00 00 	nopw   %cs:0x0(%rax,%rax,1)
  40087d:	00 00 00 

0000000000400880 <register_tm_clones>:
  400880:	be 78 20 60 00       	mov    $0x602078,%esi
  400885:	55                   	push   %rbp
  400886:	48 81 ee 78 20 60 00 	sub    $0x602078,%rsi
  40088d:	48 c1 fe 03          	sar    $0x3,%rsi
  400891:	48 89 e5             	mov    %rsp,%rbp
  400894:	48 89 f0             	mov    %rsi,%rax
  400897:	48 c1 e8 3f          	shr    $0x3f,%rax
  40089b:	48 01 c6             	add    %rax,%rsi
  40089e:	48 d1 fe             	sar    %rsi
  4008a1:	74 15                	je     4008b8 <register_tm_clones+0x38>
  4008a3:	b8 00 00 00 00       	mov    $0x0,%eax
  4008a8:	48 85 c0             	test   %rax,%rax
  4008ab:	74 0b                	je     4008b8 <register_tm_clones+0x38>
  4008ad:	5d                   	pop    %rbp
  4008ae:	bf 78 20 60 00       	mov    $0x602078,%edi
  4008b3:	ff e0                	jmpq   *%rax
  4008b5:	0f 1f 00             	nopl   (%rax)
  4008b8:	5d                   	pop    %rbp
  4008b9:	c3                   	retq   
  4008ba:	66 0f 1f 44 00 00    	nopw   0x0(%rax,%rax,1)

00000000004008c0 <__do_global_dtors_aux>:
  4008c0:	80 3d b1 17 20 00 00 	cmpb   $0x0,0x2017b1(%rip)        # 602078 <__TMC_END__>
  4008c7:	75 11                	jne    4008da <__do_global_dtors_aux+0x1a>
  4008c9:	55                   	push   %rbp
  4008ca:	48 89 e5             	mov    %rsp,%rbp
  4008cd:	e8 6e ff ff ff       	callq  400840 <deregister_tm_clones>
  4008d2:	5d                   	pop    %rbp
  4008d3:	c6 05 9e 17 20 00 01 	movb   $0x1,0x20179e(%rip)        # 602078 <__TMC_END__>
  4008da:	f3 c3                	repz retq 
  4008dc:	0f 1f 40 00          	nopl   0x0(%rax)

00000000004008e0 <frame_dummy>:
  4008e0:	bf f0 1d 60 00       	mov    $0x601df0,%edi
  4008e5:	48 83 3f 00          	cmpq   $0x0,(%rdi)
  4008e9:	75 05                	jne    4008f0 <frame_dummy+0x10>
  4008eb:	eb 93                	jmp    400880 <register_tm_clones>
  4008ed:	0f 1f 00             	nopl   (%rax)
  4008f0:	b8 00 00 00 00       	mov    $0x0,%eax
  4008f5:	48 85 c0             	test   %rax,%rax
  4008f8:	74 f1                	je     4008eb <frame_dummy+0xb>
  4008fa:	55                   	push   %rbp
  4008fb:	48 89 e5             	mov    %rsp,%rbp
  4008fe:	ff d0                	callq  *%rax
  400900:	5d                   	pop    %rbp
  400901:	e9 7a ff ff ff       	jmpq   400880 <register_tm_clones>

0000000000400906 <main>:
  400906:	55                   	push   %rbp
  400907:	48 89 e5             	mov    %rsp,%rbp
  40090a:	53                   	push   %rbx
  40090b:	48 83 ec 68          	sub    $0x68,%rsp
  40090f:	89 7d 9c             	mov    %edi,-0x64(%rbp)
  400912:	48 89 75 90          	mov    %rsi,-0x70(%rbp)
  400916:	64 48 8b 04 25 28 00 	mov    %fs:0x28,%rax
  40091d:	00 00 
  40091f:	48 89 45 e8          	mov    %rax,-0x18(%rbp)
  400923:	31 c0                	xor    %eax,%eax
  400925:	48 8d 45 a0          	lea    -0x60(%rbp),%rax
  400929:	48 89 c7             	mov    %rax,%rdi
  40092c:	e8 cf 00 00 00       	callq  400a00 <_ZN6CClockC1Ev>
  400931:	48 8d 45 a0          	lea    -0x60(%rbp),%rax
  400935:	48 89 c7             	mov    %rax,%rdi
  400938:	e8 f3 00 00 00       	callq  400a30 <_ZN6CClock5StartEv>
  40093d:	48 8d 45 a0          	lea    -0x60(%rbp),%rax
  400941:	be e2 09 40 00       	mov    $0x4009e2,%esi
  400946:	48 89 c7             	mov    %rax,%rdi
  400949:	e8 c2 01 00 00       	callq  400b10 <_ZN6CClock19SetCallbackFunctionEPFvvE>
  40094e:	c7 05 24 17 20 00 01 	movl   $0x1,0x201724(%rip)        # 60207c <isSleeping>
  400955:	00 00 00 
  400958:	bf b4 0b 40 00       	mov    $0x400bb4,%edi
  40095d:	e8 5e fe ff ff       	callq  4007c0 <puts@plt>
  400962:	8b 05 14 17 20 00    	mov    0x201714(%rip),%eax        # 60207c <isSleeping>
  400968:	85 c0                	test   %eax,%eax
  40096a:	74 0c                	je     400978 <main+0x72>
  40096c:	bf 64 00 00 00       	mov    $0x64,%edi
  400971:	e8 0a fe ff ff       	callq  400780 <sleep@plt>
  400976:	eb ea                	jmp    400962 <main+0x5c>
  400978:	48 8d 45 a0          	lea    -0x60(%rbp),%rax
  40097c:	48 89 c7             	mov    %rax,%rdi
  40097f:	e8 6c 01 00 00       	callq  400af0 <_ZN6CClock4StopEv>
  400984:	bf ba 0b 40 00       	mov    $0x400bba,%edi
  400989:	e8 32 fe ff ff       	callq  4007c0 <puts@plt>
  40098e:	bf 64 00 00 00       	mov    $0x64,%edi
  400993:	e8 e8 fd ff ff       	callq  400780 <sleep@plt>
  400998:	bb 00 00 00 00       	mov    $0x0,%ebx
  40099d:	48 8d 45 a0          	lea    -0x60(%rbp),%rax
  4009a1:	48 89 c7             	mov    %rax,%rdi
  4009a4:	e8 77 00 00 00       	callq  400a20 <_ZN6CClockD1Ev>
  4009a9:	89 d8                	mov    %ebx,%eax
  4009ab:	48 8b 55 e8          	mov    -0x18(%rbp),%rdx
  4009af:	64 48 33 14 25 28 00 	xor    %fs:0x28,%rdx
  4009b6:	00 00 
  4009b8:	74 21                	je     4009db <main+0xd5>
  4009ba:	eb 1a                	jmp    4009d6 <main+0xd0>
  4009bc:	48 89 c3             	mov    %rax,%rbx
  4009bf:	48 8d 45 a0          	lea    -0x60(%rbp),%rax
  4009c3:	48 89 c7             	mov    %rax,%rdi
  4009c6:	e8 55 00 00 00       	callq  400a20 <_ZN6CClockD1Ev>
  4009cb:	48 89 d8             	mov    %rbx,%rax
  4009ce:	48 89 c7             	mov    %rax,%rdi
  4009d1:	e8 0a fe ff ff       	callq  4007e0 <_Unwind_Resume@plt>
  4009d6:	e8 d5 fd ff ff       	callq  4007b0 <__stack_chk_fail@plt>
  4009db:	48 83 c4 68          	add    $0x68,%rsp
  4009df:	5b                   	pop    %rbx
  4009e0:	5d                   	pop    %rbp
  4009e1:	c3                   	retq   

00000000004009e2 <_Z7OnAlarmv>:
  4009e2:	55                   	push   %rbp
  4009e3:	48 89 e5             	mov    %rsp,%rbp
  4009e6:	bf bc 0b 40 00       	mov    $0x400bbc,%edi
  4009eb:	e8 d0 fd ff ff       	callq  4007c0 <puts@plt>
  4009f0:	c7 05 82 16 20 00 00 	movl   $0x0,0x201682(%rip)        # 60207c <isSleeping>
  4009f7:	00 00 00 
  4009fa:	90                   	nop
  4009fb:	5d                   	pop    %rbp
  4009fc:	c3                   	retq   
  4009fd:	0f 1f 00             	nopl   (%rax)

0000000000400a00 <_ZN6CClockC1Ev>:
  400a00:	55                   	push   %rbp
  400a01:	48 89 e5             	mov    %rsp,%rbp
  400a04:	48 89 7d f8          	mov    %rdi,-0x8(%rbp)
  400a08:	48 8b 45 f8          	mov    -0x8(%rbp),%rax
  400a0c:	c7 40 40 01 00 00 00 	movl   $0x1,0x40(%rax)
  400a13:	48 c7 00 00 00 00 00 	movq   $0x0,(%rax)
  400a1a:	5d                   	pop    %rbp
  400a1b:	c3                   	retq   
  400a1c:	0f 1f 40 00          	nopl   0x0(%rax)

0000000000400a20 <_ZN6CClockD1Ev>:
  400a20:	55                   	push   %rbp
  400a21:	48 89 e5             	mov    %rsp,%rbp
  400a24:	48 89 7d f8          	mov    %rdi,-0x8(%rbp)
  400a28:	5d                   	pop    %rbp
  400a29:	c3                   	retq   
  400a2a:	66 0f 1f 44 00 00    	nopw   0x0(%rax,%rax,1)

0000000000400a30 <_ZN6CClock5StartEv>:
  400a30:	55                   	push   %rbp
  400a31:	48 89 e5             	mov    %rsp,%rbp
  400a34:	48 83 ec 10          	sub    $0x10,%rsp
  400a38:	31 c0                	xor    %eax,%eax
  400a3a:	89 c6                	mov    %eax,%esi
  400a3c:	48 89 7d f8          	mov    %rdi,-0x8(%rbp)
  400a40:	48 8b 4d f8          	mov    -0x8(%rbp),%rcx
  400a44:	48 8d 7d f0          	lea    -0x10(%rbp),%rdi
  400a48:	48 ba 60 0a 40 00 00 	movabs $0x400a60,%rdx
  400a4f:	00 00 00 
  400a52:	e8 09 fd ff ff       	callq  400760 <pthread_create@plt>
  400a57:	48 83 c4 10          	add    $0x10,%rsp
  400a5b:	5d                   	pop    %rbp
  400a5c:	c3                   	retq   
  400a5d:	0f 1f 00             	nopl   (%rax)

0000000000400a60 <_Z7OnTimerPv>:
  400a60:	55                   	push   %rbp
  400a61:	48 89 e5             	mov    %rsp,%rbp
  400a64:	48 83 ec 20          	sub    $0x20,%rsp
  400a68:	48 89 7d f8          	mov    %rdi,-0x8(%rbp)
  400a6c:	48 8b 45 f8          	mov    -0x8(%rbp),%rax
  400a70:	48 89 45 e8          	mov    %rax,-0x18(%rbp)
  400a74:	48 8b 45 e8          	mov    -0x18(%rbp),%rax
  400a78:	83 78 40 00          	cmpl   $0x0,0x40(%rax)
  400a7c:	0f 84 6a 00 00 00    	je     400aec <_Z7OnTimerPv+0x8c>
  400a82:	bf 64 00 00 00       	mov    $0x64,%edi
  400a87:	e8 f4 fc ff ff       	callq  400780 <sleep@plt>
  400a8c:	31 c9                	xor    %ecx,%ecx
  400a8e:	89 cf                	mov    %ecx,%edi
  400a90:	89 45 e4             	mov    %eax,-0x1c(%rbp)
  400a93:	e8 08 fd ff ff       	callq  4007a0 <time@plt>
  400a98:	48 89 45 f0          	mov    %rax,-0x10(%rbp)
  400a9c:	48 8d 7d f0          	lea    -0x10(%rbp),%rdi
  400aa0:	e8 cb fc ff ff       	callq  400770 <localtime@plt>
  400aa5:	48 8b 55 e8          	mov    -0x18(%rbp),%rdx
  400aa9:	48 81 c2 08 00 00 00 	add    $0x8,%rdx
  400ab0:	48 89 d7             	mov    %rdx,%rdi
  400ab3:	48 89 c6             	mov    %rax,%rsi
  400ab6:	ba 38 00 00 00       	mov    $0x38,%edx
  400abb:	e8 d0 fc ff ff       	callq  400790 <memcpy@plt>
  400ac0:	48 8b 45 e8          	mov    -0x18(%rbp),%rax
  400ac4:	83 78 08 00          	cmpl   $0x0,0x8(%rax)
  400ac8:	0f 85 19 00 00 00    	jne    400ae7 <_Z7OnTimerPv+0x87>
  400ace:	48 8b 45 e8          	mov    -0x18(%rbp),%rax
  400ad2:	48 83 38 00          	cmpq   $0x0,(%rax)
  400ad6:	0f 84 06 00 00 00    	je     400ae2 <_Z7OnTimerPv+0x82>
  400adc:	48 8b 45 e8          	mov    -0x18(%rbp),%rax
  400ae0:	ff 10                	callq  *(%rax)
  400ae2:	e9 00 00 00 00       	jmpq   400ae7 <_Z7OnTimerPv+0x87>
  400ae7:	e9 88 ff ff ff       	jmpq   400a74 <_Z7OnTimerPv+0x14>
  400aec:	0f 0b                	ud2    
  400aee:	66 90                	xchg   %ax,%ax

0000000000400af0 <_ZN6CClock4StopEv>:
  400af0:	55                   	push   %rbp
  400af1:	48 89 e5             	mov    %rsp,%rbp
  400af4:	48 89 7d f8          	mov    %rdi,-0x8(%rbp)
  400af8:	48 8b 45 f8          	mov    -0x8(%rbp),%rax
  400afc:	c7 40 40 01 00 00 00 	movl   $0x1,0x40(%rax)
  400b03:	5d                   	pop    %rbp
  400b04:	c3                   	retq   
  400b05:	66 2e 0f 1f 84 00 00 	nopw   %cs:0x0(%rax,%rax,1)
  400b0c:	00 00 00 
  400b0f:	90                   	nop

0000000000400b10 <_ZN6CClock19SetCallbackFunctionEPFvvE>:
  400b10:	55                   	push   %rbp
  400b11:	48 89 e5             	mov    %rsp,%rbp
  400b14:	48 89 7d f8          	mov    %rdi,-0x8(%rbp)
  400b18:	48 89 75 f0          	mov    %rsi,-0x10(%rbp)
  400b1c:	48 8b 45 f8          	mov    -0x8(%rbp),%rax
  400b20:	48 8b 4d f0          	mov    -0x10(%rbp),%rcx
  400b24:	48 89 08             	mov    %rcx,(%rax)
  400b27:	5d                   	pop    %rbp
  400b28:	c3                   	retq   
  400b29:	0f 1f 80 00 00 00 00 	nopl   0x0(%rax)

0000000000400b30 <__libc_csu_init>:
  400b30:	41 57                	push   %r15
  400b32:	41 56                	push   %r14
  400b34:	41 89 ff             	mov    %edi,%r15d
  400b37:	41 55                	push   %r13
  400b39:	41 54                	push   %r12
  400b3b:	4c 8d 25 9e 12 20 00 	lea    0x20129e(%rip),%r12        # 601de0 <__frame_dummy_init_array_entry>
  400b42:	55                   	push   %rbp
  400b43:	48 8d 2d 9e 12 20 00 	lea    0x20129e(%rip),%rbp        # 601de8 <__init_array_end>
  400b4a:	53                   	push   %rbx
  400b4b:	49 89 f6             	mov    %rsi,%r14
  400b4e:	49 89 d5             	mov    %rdx,%r13
  400b51:	4c 29 e5             	sub    %r12,%rbp
  400b54:	48 83 ec 08          	sub    $0x8,%rsp
  400b58:	48 c1 fd 03          	sar    $0x3,%rbp
  400b5c:	e8 c7 fb ff ff       	callq  400728 <_init>
  400b61:	48 85 ed             	test   %rbp,%rbp
  400b64:	74 20                	je     400b86 <__libc_csu_init+0x56>
  400b66:	31 db                	xor    %ebx,%ebx
  400b68:	0f 1f 84 00 00 00 00 	nopl   0x0(%rax,%rax,1)
  400b6f:	00 
  400b70:	4c 89 ea             	mov    %r13,%rdx
  400b73:	4c 89 f6             	mov    %r14,%rsi
  400b76:	44 89 ff             	mov    %r15d,%edi
  400b79:	41 ff 14 dc          	callq  *(%r12,%rbx,8)
  400b7d:	48 83 c3 01          	add    $0x1,%rbx
  400b81:	48 39 eb             	cmp    %rbp,%rbx
  400b84:	75 ea                	jne    400b70 <__libc_csu_init+0x40>
  400b86:	48 83 c4 08          	add    $0x8,%rsp
  400b8a:	5b                   	pop    %rbx
  400b8b:	5d                   	pop    %rbp
  400b8c:	41 5c                	pop    %r12
  400b8e:	41 5d                	pop    %r13
  400b90:	41 5e                	pop    %r14
  400b92:	41 5f                	pop    %r15
  400b94:	c3                   	retq   
  400b95:	90                   	nop
  400b96:	66 2e 0f 1f 84 00 00 	nopw   %cs:0x0(%rax,%rax,1)
  400b9d:	00 00 00 

0000000000400ba0 <__libc_csu_fini>:
  400ba0:	f3 c3                	repz retq 

Disassembly of section .fini:

0000000000400ba4 <_fini>:
  400ba4:	48 83 ec 08          	sub    $0x8,%rsp
  400ba8:	48 83 c4 08          	add    $0x8,%rsp
  400bac:	c3                   	retq   
